	.cpu generic+fp+simd
	.file	"PrintLib.c"
// GNU C (GCC) version 4.8.5 20150623 (Red Hat 4.8.5-16) (aarch64-linux-gnu)
//	compiled by GNU C version 4.8.5 20150623 (Red Hat 4.8.5-11), GMP version 6.0.0, MPFR version 3.1.1, MPC version 1.0.1
// GGC heuristics: --param ggc-min-expand=97 --param ggc-min-heapsize=127009
// options passed:  -fpreprocessed PrintLib.i -mcmodel=large
// -mlittle-endian
// -auxbase-strip /root/next-loader/src/edk2/UDK2018/MyWorkSpace/Build/MdeModule/RELEASE_GCC49/AARCH64/MdePkg/Library/BasePrintLib/BasePrintLib/OUTPUT/./PrintLib.obj
// -g -g -Os -Wall -Werror -Wno-array-bounds -Wno-address
// -Wno-unused-but-set-variable -fshort-wchar -fno-strict-aliasing
// -fno-short-enums -fverbose-asm -fsigned-char -ffunction-sections
// -fdata-sections -fomit-frame-pointer -fno-builtin
// options enabled:  -faggressive-loop-optimizations
// -fasynchronous-unwind-tables -fauto-inc-dec -fbranch-count-reg
// -fcaller-saves -fcombine-stack-adjustments -fcommon -fcompare-elim
// -fcprop-registers -fcrossjumping -fcse-follow-jumps -fdata-sections
// -fdefer-pop -fdelete-null-pointer-checks -fdevirtualize -fdwarf2-cfi-asm
// -fearly-inlining -feliminate-unused-debug-types
// -fexpensive-optimizations -fforward-propagate -ffunction-cse
// -ffunction-sections -fgcse -fgcse-lm -fgnu-runtime -fgnu-unique
// -fguess-branch-probability -fhoist-adjacent-loads -fident
// -fif-conversion -fif-conversion2 -findirect-inlining -finline
// -finline-atomics -finline-functions -finline-functions-called-once
// -finline-small-functions -fipa-cp -fipa-profile -fipa-pure-const
// -fipa-reference -fipa-sra -fira-hoist-pressure -fira-share-save-slots
// -fira-share-spill-slots -fivopts -fkeep-static-consts
// -fleading-underscore -fmath-errno -fmerge-constants
// -fmerge-debug-strings -fmove-loop-invariants -fomit-frame-pointer
// -foptimize-register-move -foptimize-sibling-calls -fpartial-inlining
// -fpeephole -fpeephole2 -fprefetch-loop-arrays -freg-struct-return
// -fregmove -freorder-blocks -freorder-functions -frerun-cse-after-loop
// -fsched-critical-path-heuristic -fsched-dep-count-heuristic
// -fsched-group-heuristic -fsched-interblock -fsched-last-insn-heuristic
// -fsched-rank-heuristic -fsched-spec -fsched-spec-insn-heuristic
// -fsched-stalled-insns-dep -fschedule-insns2 -fsection-anchors
// -fshow-column -fshrink-wrap -fsigned-zeros -fsplit-ivs-in-unroller
// -fsplit-wide-types -fstrict-overflow -fstrict-volatile-bitfields
// -fsync-libcalls -fthread-jumps -ftoplevel-reorder -ftrapping-math
// -ftree-bit-ccp -ftree-builtin-call-dce -ftree-ccp -ftree-ch
// -ftree-coalesce-vars -ftree-copy-prop -ftree-copyrename -ftree-cselim
// -ftree-dce -ftree-dominator-opts -ftree-dse -ftree-forwprop -ftree-fre
// -ftree-loop-if-convert -ftree-loop-im -ftree-loop-ivcanon
// -ftree-loop-optimize -ftree-parallelize-loops= -ftree-phiprop -ftree-pre
// -ftree-pta -ftree-reassoc -ftree-scev-cprop -ftree-sink
// -ftree-slp-vectorize -ftree-slsr -ftree-sra -ftree-switch-conversion
// -ftree-tail-merge -ftree-ter -ftree-vect-loop-version -ftree-vrp
// -funit-at-a-time -funwind-tables -fvar-tracking
// -fvar-tracking-assignments -fverbose-asm -fzero-initialized-in-bss
// -mglibc -mlittle-endian -momit-leaf-frame-pointer

	.text
.Ltext0:
	.section	.text.UnicodeVSPrint,"ax",%progbits
	.align	2
	.global	UnicodeVSPrint
	.type	UnicodeVSPrint, %function
UnicodeVSPrint:
.LFB0:
	.file 1 "/root/next-loader/src/edk2/UDK2018/MyWorkSpace/MdePkg/Library/BasePrintLib/PrintLib.c"
	.loc 1 76 0
	.cfi_startproc
.LVL0:
	sub	sp, sp, #80	//,,
	.cfi_def_cfa_offset 80
	stp	x19, x20, [sp]	//,,
	stp	x21, x22, [sp,16]	//,,
	str	x30, [sp,32]	//,
	.cfi_offset 19, -80
	.cfi_offset 20, -72
	.cfi_offset 21, -64
	.cfi_offset 22, -56
	.cfi_offset 30, -48
	.loc 1 76 0
	mov	x20, x0	// StartOfBuffer, StartOfBuffer
	mov	x22, x1	// BufferSize, BufferSize
	mov	x19, x2	// FormatString, FormatString
	mov	x21, x3	// tmp85,
	.loc 1 77 0
	bl	DebugAssertEnabled	//
.LVL1:
	uxtb	w0, w0	// D.3022,
	cbz	w0, .L2	// D.3022,
	.loc 1 77 0 is_stmt 0 discriminator 1
	tbz	x20, 0, .L2	// StartOfBuffer,,
	ldr	x0, .LC1	//,
	ldr	x2, .LC3	//,
	mov	x1, 77	//,
	bl	DebugAssert	//
.LVL2:
.L2:
	.loc 1 78 0 is_stmt 1
	bl	DebugAssertEnabled	//
.LVL3:
	uxtb	w0, w0	// D.3022,
	cbz	w0, .L3	// D.3022,
	.loc 1 78 0 is_stmt 0 discriminator 1
	tbz	x19, 0, .L3	// FormatString,,
	ldr	x0, .LC1	//,
	ldr	x2, .LC5	//,
	mov	x1, 78	//,
	bl	DebugAssert	//
.LVL4:
.L3:
	.loc 1 79 0 is_stmt 1
	ldp	x4, x5, [x21]	// Marker, Marker
	lsr	x1, x22, 1	//, BufferSize,
	stp	x4, x5, [sp,48]	// Marker,
	ldp	x4, x5, [x21,16]	// Marker, Marker
	mov	x3, x19	//, FormatString
	stp	x4, x5, [sp,64]	// Marker,
	mov	x0, x20	//, StartOfBuffer
	add	x4, sp, 48	//,,
	mov	x2, 320	//,
	mov	x5, 0	//,
	bl	BasePrintLibSPrintMarker	//
.LVL5:
	.loc 1 80 0
	ldr	x30, [sp,32]	//,
	ldp	x19, x20, [sp]	//,,
.LVL6:
	ldp	x21, x22, [sp,16]	//,,
.LVL7:
	add	sp, sp, 80	//,,
	.cfi_restore 30
	.cfi_restore 22
	.cfi_restore 21
	.cfi_restore 20
	.cfi_restore 19
	.cfi_def_cfa_offset 0
	ret
	.cfi_endproc
.LFE0:
	.size	UnicodeVSPrint, .-UnicodeVSPrint
	.align	3
.LC1:
	.xword	.LC0
	.align	3
.LC3:
	.xword	.LC2
	.align	3
.LC5:
	.xword	.LC4
	.section	.text.UnicodeBSPrint,"ax",%progbits
	.align	2
	.global	UnicodeBSPrint
	.type	UnicodeBSPrint, %function
UnicodeBSPrint:
.LFB1:
	.loc 1 128 0
	.cfi_startproc
.LVL8:
	sub	sp, sp, #80	//,,
	.cfi_def_cfa_offset 80
	stp	x19, x20, [sp]	//,,
	stp	x21, x22, [sp,16]	//,,
	str	x30, [sp,32]	//,
	.cfi_offset 19, -80
	.cfi_offset 20, -72
	.cfi_offset 21, -64
	.cfi_offset 22, -56
	.cfi_offset 30, -48
	.loc 1 128 0
	mov	x20, x0	// StartOfBuffer, StartOfBuffer
	mov	x22, x1	// BufferSize, BufferSize
	mov	x19, x2	// FormatString, FormatString
	mov	x21, x3	// Marker, Marker
	.loc 1 129 0
	bl	DebugAssertEnabled	//
.LVL9:
	uxtb	w0, w0	// D.3031,
	cbz	w0, .L18	// D.3031,
	.loc 1 129 0 is_stmt 0 discriminator 1
	tbz	x20, 0, .L18	// StartOfBuffer,,
	ldr	x0, .LC6	//,
	ldr	x2, .LC7	//,
	mov	x1, 129	//,
	bl	DebugAssert	//
.LVL10:
.L18:
	.loc 1 130 0 is_stmt 1
	bl	DebugAssertEnabled	//
.LVL11:
	uxtb	w0, w0	// D.3031,
	cbz	w0, .L19	// D.3031,
	.loc 1 130 0 is_stmt 0 discriminator 1
	tbz	x19, 0, .L19	// FormatString,,
	ldr	x0, .LC6	//,
	ldr	x2, .LC8	//,
	mov	x1, 130	//,
	bl	DebugAssert	//
.LVL12:
.L19:
	.loc 1 131 0 is_stmt 1
	ldr	x0, .LC9	// tmp94,
	lsr	x1, x22, 1	//, BufferSize,
	ldp	x4, x5, [x0]	// gNullVaList, gNullVaList
	mov	x3, x19	//, FormatString
	stp	x4, x5, [sp,48]	// gNullVaList,
	ldp	x4, x5, [x0,16]	// gNullVaList, gNullVaList
	mov	x2, 320	//,
	stp	x4, x5, [sp,64]	// gNullVaList,
	mov	x0, x20	//, StartOfBuffer
	add	x4, sp, 48	//,,
	mov	x5, x21	//, Marker
	bl	BasePrintLibSPrintMarker	//
.LVL13:
	.loc 1 132 0
	ldr	x30, [sp,32]	//,
	ldp	x19, x20, [sp]	//,,
.LVL14:
	ldp	x21, x22, [sp,16]	//,,
.LVL15:
	add	sp, sp, 80	//,,
	.cfi_restore 30
	.cfi_restore 22
	.cfi_restore 21
	.cfi_restore 20
	.cfi_restore 19
	.cfi_def_cfa_offset 0
	ret
	.cfi_endproc
.LFE1:
	.size	UnicodeBSPrint, .-UnicodeBSPrint
	.align	3
.LC6:
	.xword	.LC0
	.align	3
.LC7:
	.xword	.LC2
	.align	3
.LC8:
	.xword	.LC4
	.align	3
.LC9:
	.xword	gNullVaList
	.section	.text.UnicodeSPrint,"ax",%progbits
	.align	2
	.global	UnicodeSPrint
	.type	UnicodeSPrint, %function
UnicodeSPrint:
.LFB2:
	.loc 1 182 0
	.cfi_startproc
.LVL16:
	sub	sp, sp, #256	//,,
	.cfi_def_cfa_offset 256
	str	x3, [sp,216]	//,
	.loc 1 186 0
	add	x3, sp, 256	//,,
	str	x3, [sp,48]	//, MEM[(struct  *)&Marker].__stack
	str	x3, [sp,56]	//, MEM[(struct  *)&Marker].__gr_top
	add	x3, sp, 208	// tmp85,,
	str	x3, [sp,64]	// tmp85, MEM[(struct  *)&Marker].__vr_top
	mov	w3, -40	// tmp88,
	str	w3, [sp,72]	// tmp88, MEM[(struct  *)&Marker].__gr_offs
	.loc 1 182 0
	str	x4, [sp,224]	//,
	str	x5, [sp,232]	//,
	.loc 1 186 0
	mov	w3, -128	// tmp91,
	.loc 1 187 0
	ldp	x4, x5, [sp,48]	// Marker, Marker
	.loc 1 186 0
	str	w3, [sp,76]	// tmp91, MEM[(struct  *)&Marker].__vr_offs
	.loc 1 187 0
	stp	x4, x5, [sp,16]	// Marker,
	ldp	x4, x5, [sp,64]	// Marker, Marker
	add	x3, sp, 16	//,,
	.loc 1 182 0
	str	x30, [sp]	//,
	.cfi_offset 30, -256
	.loc 1 182 0
	str	x6, [sp,240]	//,
	str	x7, [sp,248]	//,
	str	q0, [sp,80]	//,
	str	q1, [sp,96]	//,
	str	q2, [sp,112]	//,
	str	q3, [sp,128]	//,
	str	q4, [sp,144]	//,
	str	q5, [sp,160]	//,
	str	q6, [sp,176]	//,
	str	q7, [sp,192]	//,
	.loc 1 187 0
	stp	x4, x5, [sp,32]	// Marker,
	bl	UnicodeVSPrint	//
.LVL17:
	.loc 1 190 0
	ldr	x30, [sp]	//,
	add	sp, sp, 256	//,,
	.cfi_restore 30
	.cfi_def_cfa_offset 0
	ret
	.cfi_endproc
.LFE2:
	.size	UnicodeSPrint, .-UnicodeSPrint
	.section	.text.UnicodeVSPrintAsciiFormat,"ax",%progbits
	.align	2
	.global	UnicodeVSPrintAsciiFormat
	.type	UnicodeVSPrintAsciiFormat, %function
UnicodeVSPrintAsciiFormat:
.LFB3:
	.loc 1 239 0
	.cfi_startproc
.LVL18:
	sub	sp, sp, #80	//,,
	.cfi_def_cfa_offset 80
	stp	x19, x20, [sp]	//,,
	stp	x21, x22, [sp,16]	//,,
	str	x30, [sp,32]	//,
	.cfi_offset 19, -80
	.cfi_offset 20, -72
	.cfi_offset 21, -64
	.cfi_offset 22, -56
	.cfi_offset 30, -48
	.loc 1 239 0
	mov	x19, x0	// StartOfBuffer, StartOfBuffer
	mov	x22, x1	// BufferSize, BufferSize
	mov	x21, x2	// FormatString, FormatString
	mov	x20, x3	// tmp82,
	.loc 1 240 0
	bl	DebugAssertEnabled	//
.LVL19:
	uxtb	w0, w0	// D.3043,
	cbz	w0, .L34	// D.3043,
	.loc 1 240 0 is_stmt 0 discriminator 1
	tbz	x19, 0, .L34	// StartOfBuffer,,
	ldr	x0, .LC10	//,
	ldr	x2, .LC11	//,
	mov	x1, 240	//,
	bl	DebugAssert	//
.LVL20:
.L34:
	.loc 1 241 0 is_stmt 1
	ldp	x4, x5, [x20]	// Marker, Marker
	lsr	x1, x22, 1	//, BufferSize,
	stp	x4, x5, [sp,48]	// Marker,
	ldp	x4, x5, [x20,16]	// Marker, Marker
	mov	x3, x21	//, FormatString
	stp	x4, x5, [sp,64]	// Marker,
	mov	x0, x19	//, StartOfBuffer
	add	x4, sp, 48	//,,
	mov	x2, 64	//,
	mov	x5, 0	//,
	bl	BasePrintLibSPrintMarker	//
.LVL21:
	.loc 1 242 0
	ldr	x30, [sp,32]	//,
	ldp	x19, x20, [sp]	//,,
.LVL22:
	ldp	x21, x22, [sp,16]	//,,
.LVL23:
	add	sp, sp, 80	//,,
	.cfi_restore 30
	.cfi_restore 22
	.cfi_restore 21
	.cfi_restore 20
	.cfi_restore 19
	.cfi_def_cfa_offset 0
	ret
	.cfi_endproc
.LFE3:
	.size	UnicodeVSPrintAsciiFormat, .-UnicodeVSPrintAsciiFormat
	.align	3
.LC10:
	.xword	.LC0
	.align	3
.LC11:
	.xword	.LC2
	.section	.text.UnicodeBSPrintAsciiFormat,"ax",%progbits
	.align	2
	.global	UnicodeBSPrintAsciiFormat
	.type	UnicodeBSPrintAsciiFormat, %function
UnicodeBSPrintAsciiFormat:
.LFB4:
	.loc 1 289 0
	.cfi_startproc
.LVL24:
	sub	sp, sp, #80	//,,
	.cfi_def_cfa_offset 80
	stp	x19, x20, [sp]	//,,
	stp	x21, x22, [sp,16]	//,,
	str	x30, [sp,32]	//,
	.cfi_offset 19, -80
	.cfi_offset 20, -72
	.cfi_offset 21, -64
	.cfi_offset 22, -56
	.cfi_offset 30, -48
	.loc 1 289 0
	mov	x19, x0	// StartOfBuffer, StartOfBuffer
	mov	x21, x1	// BufferSize, BufferSize
	mov	x20, x2	// FormatString, FormatString
	mov	x22, x3	// Marker, Marker
	.loc 1 290 0
	bl	DebugAssertEnabled	//
.LVL25:
	uxtb	w0, w0	// D.3049,
	cbz	w0, .L42	// D.3049,
	.loc 1 290 0 is_stmt 0 discriminator 1
	tbz	x19, 0, .L42	// StartOfBuffer,,
	ldr	x0, .LC12	//,
	ldr	x2, .LC13	//,
	mov	x1, 290	//,
	bl	DebugAssert	//
.LVL26:
.L42:
	.loc 1 291 0 is_stmt 1
	ldr	x0, .LC14	// tmp87,
	lsr	x1, x21, 1	//, BufferSize,
	ldp	x4, x5, [x0]	// gNullVaList, gNullVaList
	mov	x3, x20	//, FormatString
	stp	x4, x5, [sp,48]	// gNullVaList,
	ldp	x4, x5, [x0,16]	// gNullVaList, gNullVaList
	mov	x2, 64	//,
	stp	x4, x5, [sp,64]	// gNullVaList,
	mov	x0, x19	//, StartOfBuffer
	add	x4, sp, 48	//,,
	mov	x5, x22	//, Marker
	bl	BasePrintLibSPrintMarker	//
.LVL27:
	.loc 1 292 0
	ldr	x30, [sp,32]	//,
	ldp	x19, x20, [sp]	//,,
.LVL28:
	ldp	x21, x22, [sp,16]	//,,
.LVL29:
	add	sp, sp, 80	//,,
	.cfi_restore 30
	.cfi_restore 22
	.cfi_restore 21
	.cfi_restore 20
	.cfi_restore 19
	.cfi_def_cfa_offset 0
	ret
	.cfi_endproc
.LFE4:
	.size	UnicodeBSPrintAsciiFormat, .-UnicodeBSPrintAsciiFormat
	.align	3
.LC12:
	.xword	.LC0
	.align	3
.LC13:
	.xword	.LC2
	.align	3
.LC14:
	.xword	gNullVaList
	.section	.text.UnicodeSPrintAsciiFormat,"ax",%progbits
	.align	2
	.global	UnicodeSPrintAsciiFormat
	.type	UnicodeSPrintAsciiFormat, %function
UnicodeSPrintAsciiFormat:
.LFB5:
	.loc 1 342 0
	.cfi_startproc
.LVL30:
	sub	sp, sp, #256	//,,
	.cfi_def_cfa_offset 256
	str	x3, [sp,216]	//,
	.loc 1 346 0
	add	x3, sp, 256	//,,
	str	x3, [sp,48]	//, MEM[(struct  *)&Marker].__stack
	str	x3, [sp,56]	//, MEM[(struct  *)&Marker].__gr_top
	add	x3, sp, 208	// tmp85,,
	str	x3, [sp,64]	// tmp85, MEM[(struct  *)&Marker].__vr_top
	mov	w3, -40	// tmp88,
	str	w3, [sp,72]	// tmp88, MEM[(struct  *)&Marker].__gr_offs
	.loc 1 342 0
	str	x4, [sp,224]	//,
	str	x5, [sp,232]	//,
	.loc 1 346 0
	mov	w3, -128	// tmp91,
	.loc 1 347 0
	ldp	x4, x5, [sp,48]	// Marker, Marker
	.loc 1 346 0
	str	w3, [sp,76]	// tmp91, MEM[(struct  *)&Marker].__vr_offs
	.loc 1 347 0
	stp	x4, x5, [sp,16]	// Marker,
	ldp	x4, x5, [sp,64]	// Marker, Marker
	add	x3, sp, 16	//,,
	.loc 1 342 0
	str	x30, [sp]	//,
	.cfi_offset 30, -256
	.loc 1 342 0
	str	x6, [sp,240]	//,
	str	x7, [sp,248]	//,
	str	q0, [sp,80]	//,
	str	q1, [sp,96]	//,
	str	q2, [sp,112]	//,
	str	q3, [sp,128]	//,
	str	q4, [sp,144]	//,
	str	q5, [sp,160]	//,
	str	q6, [sp,176]	//,
	str	q7, [sp,192]	//,
	.loc 1 347 0
	stp	x4, x5, [sp,32]	// Marker,
	bl	UnicodeVSPrintAsciiFormat	//
.LVL31:
	.loc 1 350 0
	ldr	x30, [sp]	//,
	add	sp, sp, 256	//,,
	.cfi_restore 30
	.cfi_def_cfa_offset 0
	ret
	.cfi_endproc
.LFE5:
	.size	UnicodeSPrintAsciiFormat, .-UnicodeSPrintAsciiFormat
	.section	.text.UnicodeValueToStringS,"ax",%progbits
	.align	2
	.global	UnicodeValueToStringS
	.type	UnicodeValueToStringS, %function
UnicodeValueToStringS:
.LFB6:
	.loc 1 472 0
	.cfi_startproc
.LVL32:
	sub	sp, sp, #48	//,,
	.cfi_def_cfa_offset 48
	stp	x19, x20, [sp]	//,,
	stp	x21, x30, [sp,16]	//,,
	.cfi_offset 19, -48
	.cfi_offset 20, -40
	.cfi_offset 21, -32
	.cfi_offset 30, -24
	.loc 1 473 0
	str	x3, [sp,40]	//,
	str	x4, [sp,32]	//,
	.loc 1 472 0
	mov	x19, x0	// Buffer, Buffer
	mov	x21, x1	// BufferSize, BufferSize
	mov	x20, x2	// Flags, Flags
	.loc 1 473 0
	bl	DebugAssertEnabled	//
.LVL33:
	uxtb	w0, w0	// D.3061,
	ldr	x3, [sp,40]	//,
	ldr	x4, [sp,32]	//,
	cbz	w0, .L51	// D.3061,
	.loc 1 473 0 is_stmt 0 discriminator 1
	tbz	x19, 0, .L51	// Buffer,,
	ldr	x0, .LC15	//,
	ldr	x2, .LC17	//,
	mov	x1, 473	//,
	bl	DebugAssert	//
.LVL34:
	ldr	x4, [sp,32]	//,
	ldr	x3, [sp,40]	//,
.L51:
	.loc 1 474 0 is_stmt 1
	mov	x0, x19	//, Buffer
	mov	x1, x21	//, BufferSize
	mov	x2, x20	//, Flags
	.loc 1 475 0
	ldp	x21, x30, [sp,16]	//,,
.LVL35:
	ldp	x19, x20, [sp]	//,,
.LVL36:
	.loc 1 474 0
	mov	x5, 2	//,
	.loc 1 475 0
	add	sp, sp, 48	//,,
	.cfi_restore 30
	.cfi_restore 21
	.cfi_restore 20
	.cfi_restore 19
	.cfi_def_cfa_offset 0
	.loc 1 474 0
	b	BasePrintLibConvertValueToStringS	//
.LVL37:
	.cfi_endproc
.LFE6:
	.size	UnicodeValueToStringS, .-UnicodeValueToStringS
	.align	3
.LC15:
	.xword	.LC0
	.align	3
.LC17:
	.xword	.LC16
	.section	.text.AsciiVSPrint,"ax",%progbits
	.align	2
	.global	AsciiVSPrint
	.type	AsciiVSPrint, %function
AsciiVSPrint:
.LFB7:
	.loc 1 522 0
	.cfi_startproc
.LVL38:
	sub	sp, sp, #48	//,,
	.cfi_def_cfa_offset 48
	str	x30, [sp]	//,
	.cfi_offset 30, -48
	.loc 1 523 0
	ldp	x4, x5, [x3]	// Marker, Marker
	.loc 1 522 0
	mov	x6, x2	// FormatString, FormatString
	.loc 1 523 0
	stp	x4, x5, [sp,16]	// Marker,
	ldp	x4, x5, [x3,16]	// Marker, Marker
	mov	x2, 0	//,
.LVL39:
	stp	x4, x5, [sp,32]	// Marker,
	mov	x3, x6	//, FormatString
	add	x4, sp, 16	//,,
	mov	x5, x2	//,
	bl	BasePrintLibSPrintMarker	//
.LVL40:
	.loc 1 524 0
	ldr	x30, [sp]	//,
	add	sp, sp, 48	//,,
	.cfi_restore 30
	.cfi_def_cfa_offset 0
	ret
	.cfi_endproc
.LFE7:
	.size	AsciiVSPrint, .-AsciiVSPrint
	.section	.text.AsciiBSPrint,"ax",%progbits
	.align	2
	.global	AsciiBSPrint
	.type	AsciiBSPrint, %function
AsciiBSPrint:
.LFB8:
	.loc 1 569 0
	.cfi_startproc
.LVL41:
	sub	sp, sp, #48	//,,
	.cfi_def_cfa_offset 48
	.loc 1 570 0
	ldr	x6, .LC18	// tmp79,
	.loc 1 569 0
	str	x30, [sp]	//,
	.cfi_offset 30, -48
	.loc 1 569 0
	mov	x8, x2	// FormatString, FormatString
	mov	x5, x3	// Marker, Marker
	.loc 1 570 0
	ldp	x2, x3, [x6]	// gNullVaList, gNullVaList
.LVL42:
	add	x4, sp, 16	//,,
	stp	x2, x3, [sp,16]	// gNullVaList,
	ldp	x2, x3, [x6,16]	// gNullVaList, gNullVaList
	stp	x2, x3, [sp,32]	// gNullVaList,
	mov	x2, 0	//,
	mov	x3, x8	//, FormatString
.LVL43:
	bl	BasePrintLibSPrintMarker	//
.LVL44:
	.loc 1 571 0
	ldr	x30, [sp]	//,
	add	sp, sp, 48	//,,
	.cfi_restore 30
	.cfi_def_cfa_offset 0
	ret
	.cfi_endproc
.LFE8:
	.size	AsciiBSPrint, .-AsciiBSPrint
	.align	3
.LC18:
	.xword	gNullVaList
	.section	.text.AsciiSPrint,"ax",%progbits
	.align	2
	.global	AsciiSPrint
	.type	AsciiSPrint, %function
AsciiSPrint:
.LFB9:
	.loc 1 619 0
	.cfi_startproc
.LVL45:
	sub	sp, sp, #256	//,,
	.cfi_def_cfa_offset 256
	str	x3, [sp,216]	//,
	.loc 1 623 0
	add	x3, sp, 256	//,,
	str	x3, [sp,48]	//, MEM[(struct  *)&Marker].__stack
	str	x3, [sp,56]	//, MEM[(struct  *)&Marker].__gr_top
	add	x3, sp, 208	// tmp85,,
	str	x3, [sp,64]	// tmp85, MEM[(struct  *)&Marker].__vr_top
	mov	w3, -40	// tmp88,
	str	w3, [sp,72]	// tmp88, MEM[(struct  *)&Marker].__gr_offs
	.loc 1 619 0
	str	x4, [sp,224]	//,
	str	x5, [sp,232]	//,
	.loc 1 623 0
	mov	w3, -128	// tmp91,
	.loc 1 624 0
	ldp	x4, x5, [sp,48]	// Marker, Marker
	.loc 1 623 0
	str	w3, [sp,76]	// tmp91, MEM[(struct  *)&Marker].__vr_offs
	.loc 1 624 0
	stp	x4, x5, [sp,16]	// Marker,
	ldp	x4, x5, [sp,64]	// Marker, Marker
	add	x3, sp, 16	//,,
	.loc 1 619 0
	str	x30, [sp]	//,
	.cfi_offset 30, -256
	.loc 1 619 0
	str	x6, [sp,240]	//,
	str	x7, [sp,248]	//,
	str	q0, [sp,80]	//,
	str	q1, [sp,96]	//,
	str	q2, [sp,112]	//,
	str	q3, [sp,128]	//,
	str	q4, [sp,144]	//,
	str	q5, [sp,160]	//,
	str	q6, [sp,176]	//,
	str	q7, [sp,192]	//,
	.loc 1 624 0
	stp	x4, x5, [sp,32]	// Marker,
	bl	AsciiVSPrint	//
.LVL46:
	.loc 1 627 0
	ldr	x30, [sp]	//,
	add	sp, sp, 256	//,,
	.cfi_restore 30
	.cfi_def_cfa_offset 0
	ret
	.cfi_endproc
.LFE9:
	.size	AsciiSPrint, .-AsciiSPrint
	.section	.text.AsciiVSPrintUnicodeFormat,"ax",%progbits
	.align	2
	.global	AsciiVSPrintUnicodeFormat
	.type	AsciiVSPrintUnicodeFormat, %function
AsciiVSPrintUnicodeFormat:
.LFB10:
	.loc 1 676 0
	.cfi_startproc
.LVL47:
	sub	sp, sp, #80	//,,
	.cfi_def_cfa_offset 80
	stp	x19, x20, [sp]	//,,
	stp	x21, x22, [sp,16]	//,,
	str	x30, [sp,32]	//,
	.cfi_offset 19, -80
	.cfi_offset 20, -72
	.cfi_offset 21, -64
	.cfi_offset 22, -56
	.cfi_offset 30, -48
	.loc 1 676 0
	mov	x22, x0	// StartOfBuffer, StartOfBuffer
	mov	x21, x1	// BufferSize, BufferSize
	mov	x19, x2	// FormatString, FormatString
	mov	x20, x3	// tmp81,
	.loc 1 677 0
	bl	DebugAssertEnabled	//
.LVL48:
	uxtb	w0, w0	// D.3081,
	cbz	w0, .L62	// D.3081,
	.loc 1 677 0 is_stmt 0 discriminator 1
	tbz	x19, 0, .L62	// FormatString,,
	ldr	x0, .LC19	//,
	ldr	x2, .LC20	//,
	mov	x1, 677	//,
	bl	DebugAssert	//
.LVL49:
.L62:
	.loc 1 678 0 is_stmt 1
	ldp	x4, x5, [x20]	// Marker, Marker
	mov	x1, x21	//, BufferSize
	stp	x4, x5, [sp,48]	// Marker,
	ldp	x4, x5, [x20,16]	// Marker, Marker
	mov	x3, x19	//, FormatString
	stp	x4, x5, [sp,64]	// Marker,
	mov	x0, x22	//, StartOfBuffer
	add	x4, sp, 48	//,,
	mov	x2, 256	//,
	mov	x5, 0	//,
	bl	BasePrintLibSPrintMarker	//
.LVL50:
	.loc 1 679 0
	ldr	x30, [sp,32]	//,
	ldp	x19, x20, [sp]	//,,
.LVL51:
	ldp	x21, x22, [sp,16]	//,,
.LVL52:
	add	sp, sp, 80	//,,
	.cfi_restore 30
	.cfi_restore 22
	.cfi_restore 21
	.cfi_restore 20
	.cfi_restore 19
	.cfi_def_cfa_offset 0
	ret
	.cfi_endproc
.LFE10:
	.size	AsciiVSPrintUnicodeFormat, .-AsciiVSPrintUnicodeFormat
	.align	3
.LC19:
	.xword	.LC0
	.align	3
.LC20:
	.xword	.LC4
	.section	.text.AsciiBSPrintUnicodeFormat,"ax",%progbits
	.align	2
	.global	AsciiBSPrintUnicodeFormat
	.type	AsciiBSPrintUnicodeFormat, %function
AsciiBSPrintUnicodeFormat:
.LFB11:
	.loc 1 726 0
	.cfi_startproc
.LVL53:
	sub	sp, sp, #80	//,,
	.cfi_def_cfa_offset 80
	stp	x19, x20, [sp]	//,,
	stp	x21, x22, [sp,16]	//,,
	str	x30, [sp,32]	//,
	.cfi_offset 19, -80
	.cfi_offset 20, -72
	.cfi_offset 21, -64
	.cfi_offset 22, -56
	.cfi_offset 30, -48
	.loc 1 726 0
	mov	x21, x0	// StartOfBuffer, StartOfBuffer
	mov	x20, x1	// BufferSize, BufferSize
	mov	x19, x2	// FormatString, FormatString
	mov	x22, x3	// Marker, Marker
	.loc 1 727 0
	bl	DebugAssertEnabled	//
.LVL54:
	uxtb	w0, w0	// D.3087,
	cbz	w0, .L70	// D.3087,
	.loc 1 727 0 is_stmt 0 discriminator 1
	tbz	x19, 0, .L70	// FormatString,,
	ldr	x0, .LC21	//,
	ldr	x2, .LC22	//,
	mov	x1, 727	//,
	bl	DebugAssert	//
.LVL55:
.L70:
	.loc 1 728 0 is_stmt 1
	ldr	x2, .LC23	// tmp86,
	mov	x1, x20	//, BufferSize
	ldp	x4, x5, [x2]	// gNullVaList, gNullVaList
	mov	x3, x19	//, FormatString
	stp	x4, x5, [sp,48]	// gNullVaList,
	ldp	x4, x5, [x2,16]	// gNullVaList, gNullVaList
	mov	x0, x21	//, StartOfBuffer
	stp	x4, x5, [sp,64]	// gNullVaList,
	mov	x2, 256	//,
	add	x4, sp, 48	//,,
	mov	x5, x22	//, Marker
	bl	BasePrintLibSPrintMarker	//
.LVL56:
	.loc 1 729 0
	ldr	x30, [sp,32]	//,
	ldp	x19, x20, [sp]	//,,
.LVL57:
	ldp	x21, x22, [sp,16]	//,,
.LVL58:
	add	sp, sp, 80	//,,
	.cfi_restore 30
	.cfi_restore 22
	.cfi_restore 21
	.cfi_restore 20
	.cfi_restore 19
	.cfi_def_cfa_offset 0
	ret
	.cfi_endproc
.LFE11:
	.size	AsciiBSPrintUnicodeFormat, .-AsciiBSPrintUnicodeFormat
	.align	3
.LC21:
	.xword	.LC0
	.align	3
.LC22:
	.xword	.LC4
	.align	3
.LC23:
	.xword	gNullVaList
	.section	.text.AsciiSPrintUnicodeFormat,"ax",%progbits
	.align	2
	.global	AsciiSPrintUnicodeFormat
	.type	AsciiSPrintUnicodeFormat, %function
AsciiSPrintUnicodeFormat:
.LFB12:
	.loc 1 779 0
	.cfi_startproc
.LVL59:
	sub	sp, sp, #256	//,,
	.cfi_def_cfa_offset 256
	str	x3, [sp,216]	//,
	.loc 1 783 0
	add	x3, sp, 256	//,,
	str	x3, [sp,48]	//, MEM[(struct  *)&Marker].__stack
	str	x3, [sp,56]	//, MEM[(struct  *)&Marker].__gr_top
	add	x3, sp, 208	// tmp85,,
	str	x3, [sp,64]	// tmp85, MEM[(struct  *)&Marker].__vr_top
	mov	w3, -40	// tmp88,
	str	w3, [sp,72]	// tmp88, MEM[(struct  *)&Marker].__gr_offs
	.loc 1 779 0
	str	x4, [sp,224]	//,
	str	x5, [sp,232]	//,
	.loc 1 783 0
	mov	w3, -128	// tmp91,
	.loc 1 784 0
	ldp	x4, x5, [sp,48]	// Marker, Marker
	.loc 1 783 0
	str	w3, [sp,76]	// tmp91, MEM[(struct  *)&Marker].__vr_offs
	.loc 1 784 0
	stp	x4, x5, [sp,16]	// Marker,
	ldp	x4, x5, [sp,64]	// Marker, Marker
	add	x3, sp, 16	//,,
	.loc 1 779 0
	str	x30, [sp]	//,
	.cfi_offset 30, -256
	.loc 1 779 0
	str	x6, [sp,240]	//,
	str	x7, [sp,248]	//,
	str	q0, [sp,80]	//,
	str	q1, [sp,96]	//,
	str	q2, [sp,112]	//,
	str	q3, [sp,128]	//,
	str	q4, [sp,144]	//,
	str	q5, [sp,160]	//,
	str	q6, [sp,176]	//,
	str	q7, [sp,192]	//,
	.loc 1 784 0
	stp	x4, x5, [sp,32]	// Marker,
	bl	AsciiVSPrintUnicodeFormat	//
.LVL60:
	.loc 1 787 0
	ldr	x30, [sp]	//,
	add	sp, sp, 256	//,,
	.cfi_restore 30
	.cfi_def_cfa_offset 0
	ret
	.cfi_endproc
.LFE12:
	.size	AsciiSPrintUnicodeFormat, .-AsciiSPrintUnicodeFormat
	.section	.text.AsciiValueToStringS,"ax",%progbits
	.align	2
	.global	AsciiValueToStringS
	.type	AsciiValueToStringS, %function
AsciiValueToStringS:
.LFB13:
	.loc 1 906 0
	.cfi_startproc
.LVL61:
	.loc 1 907 0
	mov	x5, 1	//,
	b	BasePrintLibConvertValueToStringS	//
.LVL62:
	.cfi_endproc
.LFE13:
	.size	AsciiValueToStringS, .-AsciiValueToStringS
	.section	.text.SPrintLength,"ax",%progbits
	.align	2
	.global	SPrintLength
	.type	SPrintLength, %function
SPrintLength:
.LFB14:
	.loc 1 933 0
	.cfi_startproc
.LVL63:
	sub	sp, sp, #64	//,,
	.cfi_def_cfa_offset 64
	stp	x19, x20, [sp]	//,,
	str	x30, [sp,16]	//,
	.cfi_offset 19, -64
	.cfi_offset 20, -56
	.cfi_offset 30, -48
	.loc 1 933 0
	mov	x19, x0	// FormatString, FormatString
	mov	x20, x1	// tmp79,
	.loc 1 934 0
	bl	DebugAssertEnabled	//
.LVL64:
	uxtb	w0, w0	// D.3102,
	cbz	w0, .L80	// D.3102,
	.loc 1 934 0 is_stmt 0 discriminator 1
	tbz	x19, 0, .L80	// FormatString,,
	ldr	x0, .LC24	//,
	ldr	x2, .LC25	//,
	mov	x1, 934	//,
	bl	DebugAssert	//
.LVL65:
.L80:
	.loc 1 935 0 is_stmt 1
	ldp	x2, x3, [x20]	// Marker, Marker
	mov	x0, 0	//,
	stp	x2, x3, [sp,32]	// Marker,
	ldp	x2, x3, [x20,16]	// Marker, Marker
	add	x4, sp, 32	//,,
	stp	x2, x3, [sp,48]	// Marker,
	mov	x1, x0	//,
	mov	x3, x19	//, FormatString
	mov	x2, 8512	//,
	mov	x5, x0	//,
	bl	BasePrintLibSPrintMarker	//
.LVL66:
	.loc 1 936 0
	ldr	x30, [sp,16]	//,
	ldp	x19, x20, [sp]	//,,
.LVL67:
	add	sp, sp, 64	//,,
	.cfi_restore 30
	.cfi_restore 20
	.cfi_restore 19
	.cfi_def_cfa_offset 0
	ret
	.cfi_endproc
.LFE14:
	.size	SPrintLength, .-SPrintLength
	.align	3
.LC24:
	.xword	.LC0
	.align	3
.LC25:
	.xword	.LC4
	.section	.text.SPrintLengthAsciiFormat,"ax",%progbits
	.align	2
	.global	SPrintLengthAsciiFormat
	.type	SPrintLengthAsciiFormat, %function
SPrintLengthAsciiFormat:
.LFB15:
	.loc 1 959 0
	.cfi_startproc
.LVL68:
	sub	sp, sp, #48	//,,
	.cfi_def_cfa_offset 48
	str	x30, [sp]	//,
	.cfi_offset 30, -48
	.loc 1 960 0
	ldp	x4, x5, [x1]	// Marker, Marker
	.loc 1 959 0
	mov	x3, x0	// FormatString, FormatString
	.loc 1 960 0
	stp	x4, x5, [sp,16]	// Marker,
	ldp	x0, x1, [x1,16]	// Marker, Marker
.LVL69:
	add	x4, sp, 16	//,,
	stp	x0, x1, [sp,32]	// Marker,
	mov	x0, 0	//,
	mov	x1, x0	//,
	mov	x2, 8256	//,
	mov	x5, x0	//,
	bl	BasePrintLibSPrintMarker	//
.LVL70:
	.loc 1 961 0
	ldr	x30, [sp]	//,
	add	sp, sp, 48	//,,
	.cfi_restore 30
	.cfi_def_cfa_offset 0
	ret
	.cfi_endproc
.LFE15:
	.size	SPrintLengthAsciiFormat, .-SPrintLengthAsciiFormat
	.comm	gNullVaList,32,8
	.section	.rodata.str1.1,"aMS",%progbits,1
.LC0:
	.string	"/root/next-loader/src/edk2/UDK2018/MyWorkSpace/MdePkg/Library/BasePrintLib/PrintLib.c"
.LC2:
	.string	"(((UINTN) (StartOfBuffer)) & 0x01) == 0"
.LC4:
	.string	"(((UINTN) (FormatString)) & 0x01) == 0"
.LC16:
	.string	"(((UINTN) (Buffer)) & 0x01) == 0"
	.text
.Letext0:
	.file 2 "/root/next-loader/src/edk2/UDK2018/MyWorkSpace/MdePkg/Include/AArch64/ProcessorBind.h"
	.file 3 "/root/next-loader/src/edk2/UDK2018/MyWorkSpace/MdePkg/Include/Base.h"
	.file 4 "/root/next-loader/src/edk2/UDK2018/MyWorkSpace/MdePkg/Include/Library/DebugLib.h"
	.file 5 "/root/next-loader/src/edk2/UDK2018/MyWorkSpace/MdePkg/Library/BasePrintLib/PrintLibInternal.h"
	.file 6 "<built-in>"
	.section	.note.GNU-stack,"",%progbits
