	.cpu generic+fp+simd
	.file	"DebugLib.c"
// GNU C (GCC) version 4.8.5 20150623 (Red Hat 4.8.5-16) (aarch64-linux-gnu)
//	compiled by GNU C version 4.8.5 20150623 (Red Hat 4.8.5-11), GMP version 6.0.0, MPFR version 3.1.1, MPC version 1.0.1
// GGC heuristics: --param ggc-min-expand=97 --param ggc-min-heapsize=127009
// options passed:  -fpreprocessed DebugLib.i -mcmodel=large
// -mlittle-endian
// -auxbase-strip /root/next-loader/src/edk2/UDK2018/MyWorkSpace/Build/MdeModule/RELEASE_GCC49/AARCH64/MdePkg/Library/UefiDebugLibStdErr/UefiDebugLibStdErr/OUTPUT/./DebugLib.obj
// -g -g -Os -Wall -Werror -Wno-array-bounds -Wno-address
// -Wno-unused-but-set-variable -fshort-wchar -fno-strict-aliasing
// -fno-short-enums -fverbose-asm -fsigned-char -ffunction-sections
// -fdata-sections -fomit-frame-pointer -fno-builtin
// options enabled:  -faggressive-loop-optimizations
// -fasynchronous-unwind-tables -fauto-inc-dec -fbranch-count-reg
// -fcaller-saves -fcombine-stack-adjustments -fcommon -fcompare-elim
// -fcprop-registers -fcrossjumping -fcse-follow-jumps -fdata-sections
// -fdefer-pop -fdelete-null-pointer-checks -fdevirtualize -fdwarf2-cfi-asm
// -fearly-inlining -feliminate-unused-debug-types
// -fexpensive-optimizations -fforward-propagate -ffunction-cse
// -ffunction-sections -fgcse -fgcse-lm -fgnu-runtime -fgnu-unique
// -fguess-branch-probability -fhoist-adjacent-loads -fident
// -fif-conversion -fif-conversion2 -findirect-inlining -finline
// -finline-atomics -finline-functions -finline-functions-called-once
// -finline-small-functions -fipa-cp -fipa-profile -fipa-pure-const
// -fipa-reference -fipa-sra -fira-hoist-pressure -fira-share-save-slots
// -fira-share-spill-slots -fivopts -fkeep-static-consts
// -fleading-underscore -fmath-errno -fmerge-constants
// -fmerge-debug-strings -fmove-loop-invariants -fomit-frame-pointer
// -foptimize-register-move -foptimize-sibling-calls -fpartial-inlining
// -fpeephole -fpeephole2 -fprefetch-loop-arrays -freg-struct-return
// -fregmove -freorder-blocks -freorder-functions -frerun-cse-after-loop
// -fsched-critical-path-heuristic -fsched-dep-count-heuristic
// -fsched-group-heuristic -fsched-interblock -fsched-last-insn-heuristic
// -fsched-rank-heuristic -fsched-spec -fsched-spec-insn-heuristic
// -fsched-stalled-insns-dep -fschedule-insns2 -fsection-anchors
// -fshow-column -fshrink-wrap -fsigned-zeros -fsplit-ivs-in-unroller
// -fsplit-wide-types -fstrict-overflow -fstrict-volatile-bitfields
// -fsync-libcalls -fthread-jumps -ftoplevel-reorder -ftrapping-math
// -ftree-bit-ccp -ftree-builtin-call-dce -ftree-ccp -ftree-ch
// -ftree-coalesce-vars -ftree-copy-prop -ftree-copyrename -ftree-cselim
// -ftree-dce -ftree-dominator-opts -ftree-dse -ftree-forwprop -ftree-fre
// -ftree-loop-if-convert -ftree-loop-im -ftree-loop-ivcanon
// -ftree-loop-optimize -ftree-parallelize-loops= -ftree-phiprop -ftree-pre
// -ftree-pta -ftree-reassoc -ftree-scev-cprop -ftree-sink
// -ftree-slp-vectorize -ftree-slsr -ftree-sra -ftree-switch-conversion
// -ftree-tail-merge -ftree-ter -ftree-vect-loop-version -ftree-vrp
// -funit-at-a-time -funwind-tables -fvar-tracking
// -fvar-tracking-assignments -fverbose-asm -fzero-initialized-in-bss
// -mglibc -mlittle-endian -momit-leaf-frame-pointer

	.text
.Ltext0:
	.section	.text.DebugAssert,"ax",%progbits
	.align	2
	.global	DebugAssert
	.type	DebugAssert, %function
DebugAssert:
.LFB1:
	.file 1 "/root/next-loader/src/edk2/UDK2018/MyWorkSpace/MdePkg/Library/UefiDebugLibStdErr/DebugLib.c"
	.loc 1 116 0
	.cfi_startproc
.LVL0:
	sub	sp, sp, #512	//,,
	.cfi_def_cfa_offset 512
	sub	sp, sp, #16	//,,
	.cfi_def_cfa_offset 528
	.loc 1 122 0
	ldr	x3, .LC2	// tmp85,
	.loc 1 116 0
	str	x30, [sp]	//,
	.cfi_offset 30, -528
	.loc 1 116 0
	mov	x6, x2	// Description, Description
	.loc 1 122 0
	ldr	x3, [x3]	//, gEfiCallerBaseName
	ldr	x2, .LC1	//,
.LVL1:
	.loc 1 116 0
	mov	x4, x0	// FileName, FileName
	mov	x5, x1	// LineNumber, LineNumber
	.loc 1 122 0
	add	x0, sp, 16	//,,
.LVL2:
	mov	x1, 512	//,
.LVL3:
	bl	UnicodeSPrintAsciiFormat	//
.LVL4:
	.loc 1 135 0
	ldr	x0, .LC3	// tmp86,
	ldr	x0, [x0]	// gST.2, gST
	cbz	x0, .L2	// gST.2,
	.loc 1 135 0 is_stmt 0 discriminator 1
	ldr	x0, [x0,80]	// D.8912, gST.2_9->StdErr
	cbz	x0, .L2	// D.8912,
	.loc 1 136 0 is_stmt 1
	ldr	x2, [x0,8]	// _10->OutputString, _10->OutputString
	add	x1, sp, 16	//,,
	blr	x2	// _10->OutputString
.LVL5:
.L2:
	.loc 1 142 0
	ldr	x0, .LC4	// tmp89,
	ldrb	w0, [x0]	// _gPcd_FixedAtBuild_PcdDebugPropertyMask.3, _gPcd_FixedAtBuild_PcdDebugPropertyMask
	tbz	x0, 4, .L3	// _gPcd_FixedAtBuild_PcdDebugPropertyMask.3,,
	.loc 1 143 0
	bl	CpuBreakpoint	//
.LVL6:
	b	.L1	//
.L3:
	.loc 1 144 0
	tbz	x0, 5, .L1	// _gPcd_FixedAtBuild_PcdDebugPropertyMask.3,,
	.loc 1 145 0
	bl	CpuDeadLoop	//
.LVL7:
.L1:
	.loc 1 147 0
	ldr	x30, [sp]	//,
	add	sp, sp, 16	//,,
	.cfi_restore 30
	.cfi_def_cfa_offset 512
	add	sp, sp, 512	//,,
	.cfi_def_cfa_offset 496
	ret
	.cfi_endproc
.LFE1:
	.size	DebugAssert, .-DebugAssert
	.align	3
.LC1:
	.xword	.LC0
	.align	3
.LC2:
	.xword	gEfiCallerBaseName
	.align	3
.LC3:
	.xword	gST
	.align	3
.LC4:
	.xword	_gPcd_FixedAtBuild_PcdDebugPropertyMask
	.section	.text.DebugAssertEnabled,"ax",%progbits
	.align	2
	.global	DebugAssertEnabled
	.type	DebugAssertEnabled, %function
DebugAssertEnabled:
.LFB3:
	.loc 1 199 0
	.cfi_startproc
	.loc 1 200 0
	ldr	x0, .LC5	// tmp77,
	ldrb	w0, [x0]	//, _gPcd_FixedAtBuild_PcdDebugPropertyMask
	.loc 1 201 0
	and	w0, w0, 1	//, _gPcd_FixedAtBuild_PcdDebugPropertyMask,
	ret
	.cfi_endproc
.LFE3:
	.size	DebugAssertEnabled, .-DebugAssertEnabled
	.align	3
.LC5:
	.xword	_gPcd_FixedAtBuild_PcdDebugPropertyMask
	.section	.text.DebugPrint,"ax",%progbits
	.align	2
	.global	DebugPrint
	.type	DebugPrint, %function
DebugPrint:
.LFB0:
	.loc 1 54 0
	.cfi_startproc
.LVL8:
	sub	sp, sp, #752	//,,
	.cfi_def_cfa_offset 752
	sub	sp, sp, #32	//,,
	.cfi_def_cfa_offset 784
	stp	x19, x20, [sp]	//,,
	str	x30, [sp,16]	//,
	.cfi_offset 19, -784
	.cfi_offset 20, -776
	.cfi_offset 30, -768
	.loc 1 54 0
	str	x2, [sp,736]	//,
	str	x3, [sp,744]	//,
	str	x4, [sp,752]	//,
	str	x5, [sp,760]	//,
	str	x6, [sp,768]	//,
	str	x7, [sp,776]	//,
	mov	x20, x0	// ErrorLevel, ErrorLevel
	add	x0, sp, 608	//,,
.LVL9:
	str	q0, [x0]	//,
	add	x0, sp, 624	//,,
	str	q1, [x0]	//,
	add	x0, sp, 640	//,,
	str	q2, [x0]	//,
	add	x0, sp, 656	//,,
	str	q3, [x0]	//,
	add	x0, sp, 672	//,,
	str	q4, [x0]	//,
	add	x0, sp, 688	//,,
	str	q5, [x0]	//,
	add	x0, sp, 704	//,,
	str	q6, [x0]	//,
	add	x0, sp, 720	//,,
	str	q7, [x0]	//,
	mov	x19, x1	// Format, Format
	.loc 1 61 0
	bl	DebugAssertEnabled	//
.LVL10:
	uxtb	w0, w0	// D.8921,
	cbz	w0, .L17	// D.8921,
	.loc 1 61 0 is_stmt 0 discriminator 1
	cbnz	x19, .L17	// Format,
	ldr	x0, .LC7	//,
	ldr	x2, .LC9	//,
	mov	x1, 61	//,
	bl	DebugAssert	//
.LVL11:
.L17:
	.loc 1 66 0 is_stmt 1
	bl	GetDebugPrintErrorLevel	//
.LVL12:
	tst	w0, w20	//, ErrorLevel
	beq	.L16	//,
	.loc 1 73 0
	add	x0, sp, 784	//,,
	str	x0, [sp,64]	//, MEM[(struct  *)&Marker].__stack
	str	x0, [sp,72]	//, MEM[(struct  *)&Marker].__gr_top
	add	x0, sp, 736	// tmp94,,
	str	x0, [sp,80]	// tmp94, MEM[(struct  *)&Marker].__vr_top
	mov	w0, -48	// tmp97,
	str	w0, [sp,88]	// tmp97, MEM[(struct  *)&Marker].__gr_offs
	mov	w0, -128	// tmp100,
	str	w0, [sp,92]	// tmp100, MEM[(struct  *)&Marker].__vr_offs
	.loc 1 74 0
	ldp	x0, x1, [sp,64]	// Marker, Marker
	mov	x2, x19	//, Format
	stp	x0, x1, [sp,32]	// Marker,
	ldp	x0, x1, [sp,80]	// Marker, Marker
	add	x3, sp, 32	//,,
	stp	x0, x1, [sp,48]	// Marker,
	add	x0, sp, 96	//,,
	mov	x1, 256	//,
	bl	UnicodeVSPrintAsciiFormat	//
.LVL13:
	.loc 1 80 0
	ldr	x0, .LC10	// tmp109,
	ldr	x0, [x0]	// gST.0, gST
	cbz	x0, .L16	// gST.0,
	.loc 1 80 0 is_stmt 0 discriminator 1
	ldr	x0, [x0,80]	// D.8924, gST.0_16->StdErr
	cbz	x0, .L16	// D.8924,
	.loc 1 81 0 is_stmt 1
	ldr	x2, [x0,8]	// _17->OutputString, _17->OutputString
	add	x1, sp, 96	//,,
	blr	x2	// _17->OutputString
.LVL14:
.L16:
	.loc 1 83 0
	ldp	x19, x20, [sp]	//,,
.LVL15:
	ldr	x30, [sp,16]	//,
	add	sp, sp, 32	//,,
	.cfi_restore 30
	.cfi_restore 20
	.cfi_restore 19
	.cfi_def_cfa_offset 752
	add	sp, sp, 752	//,,
	.cfi_def_cfa_offset 720
	ret
	.cfi_endproc
.LFE0:
	.size	DebugPrint, .-DebugPrint
	.align	3
.LC7:
	.xword	.LC6
	.align	3
.LC9:
	.xword	.LC8
	.align	3
.LC10:
	.xword	gST
	.section	.text.DebugClearMemory,"ax",%progbits
	.align	2
	.global	DebugClearMemory
	.type	DebugClearMemory, %function
DebugClearMemory:
.LFB2:
	.loc 1 171 0
	.cfi_startproc
.LVL16:
	sub	sp, sp, #32	//,,
	.cfi_def_cfa_offset 32
	stp	x19, x20, [sp]	//,,
	str	x30, [sp,16]	//,
	.cfi_offset 19, -32
	.cfi_offset 20, -24
	.cfi_offset 30, -16
	.loc 1 171 0
	mov	x19, x0	// Buffer, Buffer
	mov	x20, x1	// Length, Length
	.loc 1 175 0
	bl	DebugAssertEnabled	//
.LVL17:
	uxtb	w0, w0	// D.8934,
	cbz	w0, .L34	// D.8934,
	.loc 1 175 0 is_stmt 0 discriminator 1
	cbnz	x19, .L34	// Buffer,
	ldr	x0, .LC11	//,
	ldr	x2, .LC13	//,
	mov	x1, 175	//,
	bl	DebugAssert	//
.LVL18:
.L34:
	.loc 1 180 0 is_stmt 1
	ldr	x2, .LC14	// tmp82,
	mov	x0, x19	//, Buffer
	mov	x1, x20	//, Length
	.loc 1 181 0
	ldr	x30, [sp,16]	//,
	ldp	x19, x20, [sp]	//,,
.LVL19:
	.loc 1 180 0
	ldrb	w2, [x2]	//, _gPcd_FixedAtBuild_PcdDebugClearMemoryValue
	.loc 1 181 0
	add	sp, sp, 32	//,,
	.cfi_restore 30
	.cfi_restore 20
	.cfi_restore 19
	.cfi_def_cfa_offset 0
	.loc 1 180 0
	b	SetMem	//
.LVL20:
	.cfi_endproc
.LFE2:
	.size	DebugClearMemory, .-DebugClearMemory
	.align	3
.LC11:
	.xword	.LC6
	.align	3
.LC13:
	.xword	.LC12
	.align	3
.LC14:
	.xword	_gPcd_FixedAtBuild_PcdDebugClearMemoryValue
	.section	.text.DebugPrintEnabled,"ax",%progbits
	.align	2
	.global	DebugPrintEnabled
	.type	DebugPrintEnabled, %function
DebugPrintEnabled:
.LFB4:
	.loc 1 219 0
	.cfi_startproc
	.loc 1 220 0
	ldr	x0, .LC15	// tmp79,
	ldrb	w0, [x0]	// _gPcd_FixedAtBuild_PcdDebugPropertyMask, _gPcd_FixedAtBuild_PcdDebugPropertyMask
	.loc 1 221 0
	ubfx	x0, x0, 1, 1	//, _gPcd_FixedAtBuild_PcdDebugPropertyMask,,
	ret
	.cfi_endproc
.LFE4:
	.size	DebugPrintEnabled, .-DebugPrintEnabled
	.align	3
.LC15:
	.xword	_gPcd_FixedAtBuild_PcdDebugPropertyMask
	.section	.text.DebugCodeEnabled,"ax",%progbits
	.align	2
	.global	DebugCodeEnabled
	.type	DebugCodeEnabled, %function
DebugCodeEnabled:
.LFB5:
	.loc 1 239 0
	.cfi_startproc
	.loc 1 240 0
	ldr	x0, .LC16	// tmp79,
	ldrb	w0, [x0]	// _gPcd_FixedAtBuild_PcdDebugPropertyMask, _gPcd_FixedAtBuild_PcdDebugPropertyMask
	.loc 1 241 0
	ubfx	x0, x0, 2, 1	//, _gPcd_FixedAtBuild_PcdDebugPropertyMask,,
	ret
	.cfi_endproc
.LFE5:
	.size	DebugCodeEnabled, .-DebugCodeEnabled
	.align	3
.LC16:
	.xword	_gPcd_FixedAtBuild_PcdDebugPropertyMask
	.section	.text.DebugClearMemoryEnabled,"ax",%progbits
	.align	2
	.global	DebugClearMemoryEnabled
	.type	DebugClearMemoryEnabled, %function
DebugClearMemoryEnabled:
.LFB6:
	.loc 1 259 0
	.cfi_startproc
	.loc 1 260 0
	ldr	x0, .LC17	// tmp79,
	ldrb	w0, [x0]	// _gPcd_FixedAtBuild_PcdDebugPropertyMask, _gPcd_FixedAtBuild_PcdDebugPropertyMask
	.loc 1 261 0
	ubfx	x0, x0, 3, 1	//, _gPcd_FixedAtBuild_PcdDebugPropertyMask,,
	ret
	.cfi_endproc
.LFE6:
	.size	DebugClearMemoryEnabled, .-DebugClearMemoryEnabled
	.align	3
.LC17:
	.xword	_gPcd_FixedAtBuild_PcdDebugPropertyMask
	.section	.text.DebugPrintLevelEnabled,"ax",%progbits
	.align	2
	.global	DebugPrintLevelEnabled
	.type	DebugPrintLevelEnabled, %function
DebugPrintLevelEnabled:
.LFB7:
	.loc 1 277 0
	.cfi_startproc
.LVL21:
	.loc 1 278 0
	ldr	x1, .LC18	// tmp81,
	ldr	w1, [x1]	// D.8954, _gPcd_FixedAtBuild_PcdFixedDebugPrintErrorLevel
	tst	x0, x1	// ErrorLevel, D.8954
	.loc 1 279 0
	cset	w0, ne	//,
.LVL22:
	ret
	.cfi_endproc
.LFE7:
	.size	DebugPrintLevelEnabled, .-DebugPrintLevelEnabled
	.align	3
.LC18:
	.xword	_gPcd_FixedAtBuild_PcdFixedDebugPrintErrorLevel
	.section	.rodata.str1.1,"aMS",%progbits,1
.LC0:
	.string	"ASSERT [%a] %a(%d): %a\n"
.LC6:
	.string	"/root/next-loader/src/edk2/UDK2018/MyWorkSpace/MdePkg/Library/UefiDebugLibStdErr/DebugLib.c"
.LC8:
	.string	"Format != ((void *) 0)"
.LC12:
	.string	"Buffer != ((void *) 0)"
	.text
.Letext0:
	.file 2 "/root/next-loader/src/edk2/UDK2018/MyWorkSpace/MdePkg/Include/AArch64/ProcessorBind.h"
	.file 3 "/root/next-loader/src/edk2/UDK2018/MyWorkSpace/MdePkg/Include/Base.h"
	.file 4 "/root/next-loader/src/edk2/UDK2018/MyWorkSpace/MdePkg/Include/Uefi/UefiBaseType.h"
	.file 5 "/root/next-loader/src/edk2/UDK2018/MyWorkSpace/MdePkg/Include/Uefi/UefiMultiPhase.h"
	.file 6 "/root/next-loader/src/edk2/UDK2018/MyWorkSpace/MdePkg/Include/Protocol/DevicePath.h"
	.file 7 "/root/next-loader/src/edk2/UDK2018/MyWorkSpace/MdePkg/Include/Protocol/SimpleTextIn.h"
	.file 8 "<built-in>"
	.file 9 "/root/next-loader/src/edk2/UDK2018/MyWorkSpace/MdePkg/Include/Protocol/SimpleTextOut.h"
	.file 10 "/root/next-loader/src/edk2/UDK2018/MyWorkSpace/MdePkg/Include/Uefi/UefiSpec.h"
	.file 11 "/root/next-loader/src/edk2/UDK2018/MyWorkSpace/Build/MdeModule/RELEASE_GCC49/AARCH64/MdePkg/Library/UefiDebugLibStdErr/UefiDebugLibStdErr/DEBUG/AutoGen.h"
	.file 12 "/root/next-loader/src/edk2/UDK2018/MyWorkSpace/MdePkg/Include/Library/BaseLib.h"
	.file 13 "/root/next-loader/src/edk2/UDK2018/MyWorkSpace/MdePkg/Include/Library/PrintLib.h"
	.file 14 "/root/next-loader/src/edk2/UDK2018/MyWorkSpace/MdePkg/Include/Library/UefiBootServicesTableLib.h"
	.file 15 "/root/next-loader/src/edk2/UDK2018/MyWorkSpace/MdePkg/Include/Library/DebugPrintErrorLevelLib.h"
	.file 16 "/root/next-loader/src/edk2/UDK2018/MyWorkSpace/MdePkg/Include/Library/BaseMemoryLib.h"
	.section	.note.GNU-stack,"",%progbits
