	.cpu generic+fp+simd
	.file	"UefiRuntimeServicesTableLib.c"
// GNU C (GCC) version 4.8.5 20150623 (Red Hat 4.8.5-16) (aarch64-linux-gnu)
//	compiled by GNU C version 4.8.5 20150623 (Red Hat 4.8.5-11), GMP version 6.0.0, MPFR version 3.1.1, MPC version 1.0.1
// GGC heuristics: --param ggc-min-expand=97 --param ggc-min-heapsize=127009
// options passed:  -fpreprocessed UefiRuntimeServicesTableLib.i
// -mcmodel=large -mlittle-endian
// -auxbase-strip /root/next-loader/src/edk2/UDK2018/MyWorkSpace/Build/MdeModule/RELEASE_GCC49/AARCH64/MdePkg/Library/UefiRuntimeServicesTableLib/UefiRuntimeServicesTableLib/OUTPUT/./UefiRuntimeServicesTableLib.obj
// -g -g -Os -Wall -Werror -Wno-array-bounds -Wno-address
// -Wno-unused-but-set-variable -fshort-wchar -fno-strict-aliasing
// -fno-short-enums -fverbose-asm -fsigned-char -ffunction-sections
// -fdata-sections -fomit-frame-pointer -fno-builtin
// options enabled:  -faggressive-loop-optimizations
// -fasynchronous-unwind-tables -fauto-inc-dec -fbranch-count-reg
// -fcaller-saves -fcombine-stack-adjustments -fcommon -fcompare-elim
// -fcprop-registers -fcrossjumping -fcse-follow-jumps -fdata-sections
// -fdefer-pop -fdelete-null-pointer-checks -fdevirtualize -fdwarf2-cfi-asm
// -fearly-inlining -feliminate-unused-debug-types
// -fexpensive-optimizations -fforward-propagate -ffunction-cse
// -ffunction-sections -fgcse -fgcse-lm -fgnu-runtime -fgnu-unique
// -fguess-branch-probability -fhoist-adjacent-loads -fident
// -fif-conversion -fif-conversion2 -findirect-inlining -finline
// -finline-atomics -finline-functions -finline-functions-called-once
// -finline-small-functions -fipa-cp -fipa-profile -fipa-pure-const
// -fipa-reference -fipa-sra -fira-hoist-pressure -fira-share-save-slots
// -fira-share-spill-slots -fivopts -fkeep-static-consts
// -fleading-underscore -fmath-errno -fmerge-constants
// -fmerge-debug-strings -fmove-loop-invariants -fomit-frame-pointer
// -foptimize-register-move -foptimize-sibling-calls -fpartial-inlining
// -fpeephole -fpeephole2 -fprefetch-loop-arrays -freg-struct-return
// -fregmove -freorder-blocks -freorder-functions -frerun-cse-after-loop
// -fsched-critical-path-heuristic -fsched-dep-count-heuristic
// -fsched-group-heuristic -fsched-interblock -fsched-last-insn-heuristic
// -fsched-rank-heuristic -fsched-spec -fsched-spec-insn-heuristic
// -fsched-stalled-insns-dep -fschedule-insns2 -fsection-anchors
// -fshow-column -fshrink-wrap -fsigned-zeros -fsplit-ivs-in-unroller
// -fsplit-wide-types -fstrict-overflow -fstrict-volatile-bitfields
// -fsync-libcalls -fthread-jumps -ftoplevel-reorder -ftrapping-math
// -ftree-bit-ccp -ftree-builtin-call-dce -ftree-ccp -ftree-ch
// -ftree-coalesce-vars -ftree-copy-prop -ftree-copyrename -ftree-cselim
// -ftree-dce -ftree-dominator-opts -ftree-dse -ftree-forwprop -ftree-fre
// -ftree-loop-if-convert -ftree-loop-im -ftree-loop-ivcanon
// -ftree-loop-optimize -ftree-parallelize-loops= -ftree-phiprop -ftree-pre
// -ftree-pta -ftree-reassoc -ftree-scev-cprop -ftree-sink
// -ftree-slp-vectorize -ftree-slsr -ftree-sra -ftree-switch-conversion
// -ftree-tail-merge -ftree-ter -ftree-vect-loop-version -ftree-vrp
// -funit-at-a-time -funwind-tables -fvar-tracking
// -fvar-tracking-assignments -fverbose-asm -fzero-initialized-in-bss
// -mglibc -mlittle-endian -momit-leaf-frame-pointer

	.text
.Ltext0:
	.section	.text.UefiRuntimeServicesTableLibConstructor,"ax",%progbits
	.align	2
	.global	UefiRuntimeServicesTableLibConstructor
	.type	UefiRuntimeServicesTableLibConstructor, %function
UefiRuntimeServicesTableLibConstructor:
.LFB0:
	.file 1 "/root/next-loader/src/edk2/UDK2018/MyWorkSpace/MdePkg/Library/UefiRuntimeServicesTableLib/UefiRuntimeServicesTableLib.c"
	.loc 1 42 0
	.cfi_startproc
.LVL0:
	sub	sp, sp, #16	//,,
	.cfi_def_cfa_offset 16
	stp	x19, x30, [sp]	//,,
	.cfi_offset 19, -16
	.cfi_offset 30, -8
	.loc 1 46 0
	ldr	x0, [x1,88]	// SystemTable_3(D)->RuntimeServices, SystemTable_3(D)->RuntimeServices
.LVL1:
	ldr	x19, .LC0	// tmp79,
	str	x0, [x19]	// SystemTable_3(D)->RuntimeServices, gRT
	.loc 1 47 0
	bl	DebugAssertEnabled	//
.LVL2:
	uxtb	w0, w0	// D.8023,
	cbz	w0, .L2	// D.8023,
	.loc 1 47 0 is_stmt 0 discriminator 1
	ldr	x0, [x19]	// gRT, gRT
	cbnz	x0, .L2	// gRT,
	ldr	x0, .LC2	//,
	ldr	x2, .LC4	//,
	mov	x1, 47	//,
	bl	DebugAssert	//
.LVL3:
.L2:
	.loc 1 49 0 is_stmt 1
	mov	x0, 0	//,
	ldp	x19, x30, [sp]	//,,
	add	sp, sp, 16	//,,
	.cfi_restore 30
	.cfi_restore 19
	.cfi_def_cfa_offset 0
	ret
	.cfi_endproc
.LFE0:
	.size	UefiRuntimeServicesTableLibConstructor, .-UefiRuntimeServicesTableLibConstructor
	.align	3
.LC0:
	.xword	.LANCHOR0
	.align	3
.LC2:
	.xword	.LC1
	.align	3
.LC4:
	.xword	.LC3
	.global	gRT
	.section	.rodata.str1.1,"aMS",%progbits,1
.LC1:
	.string	"/root/next-loader/src/edk2/UDK2018/MyWorkSpace/MdePkg/Library/UefiRuntimeServicesTableLib/UefiRuntimeServicesTableLib.c"
.LC3:
	.string	"gRT != ((void *) 0)"
	.section	.bss.gRT,"aw",%nobits
	.align	3
.LANCHOR0 = . + 0
	.type	gRT, %object
	.size	gRT, 8
gRT:
	.zero	8
	.text
.Letext0:
	.file 2 "/root/next-loader/src/edk2/UDK2018/MyWorkSpace/MdePkg/Include/AArch64/ProcessorBind.h"
	.file 3 "/root/next-loader/src/edk2/UDK2018/MyWorkSpace/MdePkg/Include/Base.h"
	.file 4 "/root/next-loader/src/edk2/UDK2018/MyWorkSpace/MdePkg/Include/Uefi/UefiBaseType.h"
	.file 5 "/root/next-loader/src/edk2/UDK2018/MyWorkSpace/MdePkg/Include/Uefi/UefiMultiPhase.h"
	.file 6 "/root/next-loader/src/edk2/UDK2018/MyWorkSpace/MdePkg/Include/Protocol/DevicePath.h"
	.file 7 "/root/next-loader/src/edk2/UDK2018/MyWorkSpace/MdePkg/Include/Protocol/SimpleTextIn.h"
	.file 8 "/root/next-loader/src/edk2/UDK2018/MyWorkSpace/MdePkg/Include/Protocol/SimpleTextOut.h"
	.file 9 "/root/next-loader/src/edk2/UDK2018/MyWorkSpace/MdePkg/Include/Uefi/UefiSpec.h"
	.file 10 "/root/next-loader/src/edk2/UDK2018/MyWorkSpace/MdePkg/Include/Library/DebugLib.h"
	.section	.note.GNU-stack,"",%progbits
