	.cpu generic+fp+simd
	.file	"MemoryAllocationLib.c"
// GNU C (GCC) version 4.8.5 20150623 (Red Hat 4.8.5-16) (aarch64-linux-gnu)
//	compiled by GNU C version 4.8.5 20150623 (Red Hat 4.8.5-11), GMP version 6.0.0, MPFR version 3.1.1, MPC version 1.0.1
// GGC heuristics: --param ggc-min-expand=97 --param ggc-min-heapsize=127009
// options passed:  -fpreprocessed MemoryAllocationLib.i -mcmodel=large
// -mlittle-endian
// -auxbase-strip /root/next-loader/src/edk2/UDK2018/MyWorkSpace/Build/MdeModule/RELEASE_GCC49/AARCH64/MdePkg/Library/UefiMemoryAllocationLib/UefiMemoryAllocationLib/OUTPUT/./MemoryAllocationLib.obj
// -g -g -Os -Wall -Werror -Wno-array-bounds -Wno-address
// -Wno-unused-but-set-variable -fshort-wchar -fno-strict-aliasing
// -fno-short-enums -fverbose-asm -fsigned-char -ffunction-sections
// -fdata-sections -fomit-frame-pointer -fno-builtin
// options enabled:  -faggressive-loop-optimizations
// -fasynchronous-unwind-tables -fauto-inc-dec -fbranch-count-reg
// -fcaller-saves -fcombine-stack-adjustments -fcommon -fcompare-elim
// -fcprop-registers -fcrossjumping -fcse-follow-jumps -fdata-sections
// -fdefer-pop -fdelete-null-pointer-checks -fdevirtualize -fdwarf2-cfi-asm
// -fearly-inlining -feliminate-unused-debug-types
// -fexpensive-optimizations -fforward-propagate -ffunction-cse
// -ffunction-sections -fgcse -fgcse-lm -fgnu-runtime -fgnu-unique
// -fguess-branch-probability -fhoist-adjacent-loads -fident
// -fif-conversion -fif-conversion2 -findirect-inlining -finline
// -finline-atomics -finline-functions -finline-functions-called-once
// -finline-small-functions -fipa-cp -fipa-profile -fipa-pure-const
// -fipa-reference -fipa-sra -fira-hoist-pressure -fira-share-save-slots
// -fira-share-spill-slots -fivopts -fkeep-static-consts
// -fleading-underscore -fmath-errno -fmerge-constants
// -fmerge-debug-strings -fmove-loop-invariants -fomit-frame-pointer
// -foptimize-register-move -foptimize-sibling-calls -fpartial-inlining
// -fpeephole -fpeephole2 -fprefetch-loop-arrays -freg-struct-return
// -fregmove -freorder-blocks -freorder-functions -frerun-cse-after-loop
// -fsched-critical-path-heuristic -fsched-dep-count-heuristic
// -fsched-group-heuristic -fsched-interblock -fsched-last-insn-heuristic
// -fsched-rank-heuristic -fsched-spec -fsched-spec-insn-heuristic
// -fsched-stalled-insns-dep -fschedule-insns2 -fsection-anchors
// -fshow-column -fshrink-wrap -fsigned-zeros -fsplit-ivs-in-unroller
// -fsplit-wide-types -fstrict-overflow -fstrict-volatile-bitfields
// -fsync-libcalls -fthread-jumps -ftoplevel-reorder -ftrapping-math
// -ftree-bit-ccp -ftree-builtin-call-dce -ftree-ccp -ftree-ch
// -ftree-coalesce-vars -ftree-copy-prop -ftree-copyrename -ftree-cselim
// -ftree-dce -ftree-dominator-opts -ftree-dse -ftree-forwprop -ftree-fre
// -ftree-loop-if-convert -ftree-loop-im -ftree-loop-ivcanon
// -ftree-loop-optimize -ftree-parallelize-loops= -ftree-phiprop -ftree-pre
// -ftree-pta -ftree-reassoc -ftree-scev-cprop -ftree-sink
// -ftree-slp-vectorize -ftree-slsr -ftree-sra -ftree-switch-conversion
// -ftree-tail-merge -ftree-ter -ftree-vect-loop-version -ftree-vrp
// -funit-at-a-time -funwind-tables -fvar-tracking
// -fvar-tracking-assignments -fverbose-asm -fzero-initialized-in-bss
// -mglibc -mlittle-endian -momit-leaf-frame-pointer

	.text
.Ltext0:
	.section	.text.InternalAllocatePages,"ax",%progbits
	.align	2
	.global	InternalAllocatePages
	.type	InternalAllocatePages, %function
InternalAllocatePages:
.LFB0:
	.file 1 "/root/next-loader/src/edk2/UDK2018/MyWorkSpace/MdePkg/Library/UefiMemoryAllocationLib/MemoryAllocationLib.c"
	.loc 1 43 0
	.cfi_startproc
.LVL0:
	sub	sp, sp, #32	//,,
	.cfi_def_cfa_offset 32
	str	x30, [sp]	//,
	.cfi_offset 30, -32
	.loc 1 43 0
	mov	w3, w0	// MemoryType, MemoryType
	mov	x2, x1	// Pages, Pages
	.loc 1 47 0
	cbnz	x1, .L2	// Pages,
.LVL1:
.L4:
	.loc 1 48 0
	mov	x0, 0	// D.8515,
	b	.L3	//
.LVL2:
.L2:
	.loc 1 51 0
	ldr	x0, .LC0	// tmp83,
.LVL3:
	mov	w1, w3	//, MemoryType
.LVL4:
	ldr	x0, [x0]	// gBS, gBS
	add	x3, sp, 24	//,,
.LVL5:
	ldr	x4, [x0,40]	// gBS.0_5->AllocatePages, gBS.0_5->AllocatePages
	mov	w0, 0	//,
	blr	x4	// gBS.0_5->AllocatePages
.LVL6:
	.loc 1 52 0
	tbnz	x0, #63, .L4	//,
	.loc 1 55 0
	ldr	x0, [sp,24]	// D.8515, Memory
.LVL7:
.L3:
	.loc 1 56 0
	ldr	x30, [sp]	//,
	add	sp, sp, 32	//,,
	.cfi_restore 30
	.cfi_def_cfa_offset 0
	ret
	.cfi_endproc
.LFE0:
	.size	InternalAllocatePages, .-InternalAllocatePages
	.align	3
.LC0:
	.xword	gBS
	.section	.text.AllocatePages,"ax",%progbits
	.align	2
	.global	AllocatePages
	.type	AllocatePages, %function
AllocatePages:
.LFB1:
	.loc 1 76 0
	.cfi_startproc
.LVL8:
	.loc 1 76 0
	mov	x1, x0	// Pages, Pages
	.loc 1 77 0
	mov	w0, 4	//,
.LVL9:
	b	InternalAllocatePages	//
.LVL10:
	.cfi_endproc
.LFE1:
	.size	AllocatePages, .-AllocatePages
	.section	.text.AllocateRuntimePages,"ax",%progbits
	.align	2
	.global	AllocateRuntimePages
	.type	AllocateRuntimePages, %function
AllocateRuntimePages:
.LFB2:
	.loc 1 98 0
	.cfi_startproc
.LVL11:
	.loc 1 98 0
	mov	x1, x0	// Pages, Pages
	.loc 1 99 0
	mov	w0, 6	//,
.LVL12:
	b	InternalAllocatePages	//
.LVL13:
	.cfi_endproc
.LFE2:
	.size	AllocateRuntimePages, .-AllocateRuntimePages
	.section	.text.AllocateReservedPages,"ax",%progbits
	.align	2
	.global	AllocateReservedPages
	.type	AllocateReservedPages, %function
AllocateReservedPages:
.LFB3:
	.loc 1 120 0
	.cfi_startproc
.LVL14:
	.loc 1 120 0
	mov	x1, x0	// Pages, Pages
	.loc 1 121 0
	mov	w0, 0	//,
.LVL15:
	b	InternalAllocatePages	//
.LVL16:
	.cfi_endproc
.LFE3:
	.size	AllocateReservedPages, .-AllocateReservedPages
	.section	.text.FreePages,"ax",%progbits
	.align	2
	.global	FreePages
	.type	FreePages, %function
FreePages:
.LFB4:
	.loc 1 147 0
	.cfi_startproc
.LVL17:
	sub	sp, sp, #32	//,,
	.cfi_def_cfa_offset 32
	stp	x19, x20, [sp]	//,,
	str	x30, [sp,16]	//,
	.cfi_offset 19, -32
	.cfi_offset 20, -24
	.cfi_offset 30, -16
	.loc 1 147 0
	mov	x20, x0	// Buffer, Buffer
	mov	x19, x1	// Pages, Pages
	.loc 1 150 0
	bl	DebugAssertEnabled	//
.LVL18:
	uxtb	w0, w0	// D.8528,
	cbz	w0, .L10	// D.8528,
	.loc 1 150 0 is_stmt 0 discriminator 1
	cbnz	x19, .L10	// Pages,
	ldr	x0, .LC2	//,
	ldr	x2, .LC4	//,
	mov	x1, 150	//,
	bl	DebugAssert	//
.LVL19:
.L10:
	.loc 1 151 0 is_stmt 1
	ldr	x0, .LC5	// tmp88,
	mov	x1, x19	//, Pages
	ldr	x0, [x0]	// gBS, gBS
	ldr	x2, [x0,48]	// gBS.3_9->FreePages, gBS.3_9->FreePages
	mov	x0, x20	//, Buffer
	blr	x2	// gBS.3_9->FreePages
.LVL20:
	mov	x19, x0	// Status,
.LVL21:
	.loc 1 152 0
	bl	DebugAssertEnabled	//
.LVL22:
	uxtb	w0, w0	// D.8528,
	cbz	w0, .L9	// D.8528,
	.loc 1 152 0 is_stmt 0 discriminator 1
	tbz	x19, #63, .L9	// Status,
	bl	DebugPrintEnabled	//
.LVL23:
	uxtb	w0, w0	// D.8528,
	cbz	w0, .L13	// D.8528,
	mov	x0, 2147483648	//,
	bl	DebugPrintLevelEnabled	//
.LVL24:
	uxtb	w0, w0	// D.8528,
	cbz	w0, .L13	// D.8528,
	ldr	x1, .LC7	//,
	mov	x0, 2147483648	//,
	mov	x2, x19	//, Status
	bl	DebugPrint	//
.LVL25:
.L13:
	.loc 1 153 0 is_stmt 1 discriminator 2
	ldp	x19, x20, [sp]	//,,
.LVL26:
	ldr	x30, [sp,16]	//,
	.loc 1 152 0 discriminator 2
	ldr	x0, .LC2	//,
	ldr	x2, .LC9	//,
	mov	x1, 152	//,
	.loc 1 153 0 discriminator 2
	add	sp, sp, 32	//,,
	.cfi_remember_state
	.cfi_restore 30
	.cfi_restore 20
	.cfi_restore 19
	.cfi_def_cfa_offset 0
	.loc 1 152 0 discriminator 2
	b	DebugAssert	//
.LVL27:
.L9:
	.cfi_restore_state
	.loc 1 153 0
	ldp	x19, x20, [sp]	//,,
.LVL28:
	ldr	x30, [sp,16]	//,
	add	sp, sp, 32	//,,
	.cfi_restore 30
	.cfi_restore 20
	.cfi_restore 19
	.cfi_def_cfa_offset 0
	ret
	.cfi_endproc
.LFE4:
	.size	FreePages, .-FreePages
	.align	3
.LC2:
	.xword	.LC1
	.align	3
.LC4:
	.xword	.LC3
	.align	3
.LC5:
	.xword	gBS
	.align	3
.LC7:
	.xword	.LC6
	.align	3
.LC9:
	.xword	.LC8
	.section	.text.InternalAllocateAlignedPages,"ax",%progbits
	.align	2
	.global	InternalAllocateAlignedPages
	.type	InternalAllocateAlignedPages, %function
InternalAllocateAlignedPages:
.LFB5:
	.loc 1 179 0
	.cfi_startproc
.LVL29:
	sub	sp, sp, #80	//,,
	.cfi_def_cfa_offset 80
	stp	x19, x20, [sp]	//,,
	stp	x23, x24, [sp,32]	//,,
	stp	x21, x22, [sp,16]	//,,
	str	x30, [sp,48]	//,
	.cfi_offset 19, -80
	.cfi_offset 20, -72
	.cfi_offset 23, -48
	.cfi_offset 24, -40
	.cfi_offset 21, -64
	.cfi_offset 22, -56
	.cfi_offset 30, -32
	.loc 1 179 0
	mov	w24, w0	// MemoryType, MemoryType
	mov	x20, x1	// Pages, Pages
	mov	x19, x2	// Alignment, Alignment
	.loc 1 190 0
	bl	DebugAssertEnabled	//
.LVL30:
	uxtb	w0, w0	// D.8537,
	cbz	w0, .L25	// D.8537,
	.loc 1 190 0 is_stmt 0 discriminator 1
	sub	x0, x19, #1	// D.8538, Alignment,
	tst	x0, x19	// D.8538, Alignment
	beq	.L25	//,
	ldr	x0, .LC10	//,
	ldr	x2, .LC12	//,
	mov	x1, 190	//,
	bl	DebugAssert	//
.LVL31:
.L25:
	.loc 1 192 0 is_stmt 1
	cbnz	x20, .L26	// Pages,
.LVL32:
.L30:
	.loc 1 193 0
	mov	x0, 0	// D.8536,
	b	.L27	//
.LVL33:
.L26:
	.loc 1 195 0
	cmp	x19, 4096	// Alignment,
	ldr	x22, .LC15	// tmp170,
	bls	.L28	//,
	.loc 1 200 0
	and	x0, x19, 4095	// D.8538, Alignment,
	cmp	x0, xzr	// D.8538,
	.loc 1 199 0
	sub	x21, x19, #1	// AlignmentMask, Alignment,
.LVL34:
	.loc 1 200 0
	lsr	x19, x19, 12	// D.8538, Alignment,
.LVL35:
	csinc	x19, x19, x19, eq	// D.8538, D.8538,
	.loc 1 204 0
	bl	DebugAssertEnabled	//
.LVL36:
	uxtb	w0, w0	// D.8537,
	.loc 1 200 0
	add	x23, x19, x20	// RealPages, D.8538, Pages
.LVL37:
	.loc 1 204 0
	cbz	w0, .L29	// D.8537,
	.loc 1 204 0 is_stmt 0 discriminator 1
	cmp	x23, x20	// RealPages, Pages
	bhi	.L29	//,
	ldr	x0, .LC10	//,
	ldr	x2, .LC14	//,
	mov	x1, 204	//,
	bl	DebugAssert	//
.LVL38:
.L29:
	.loc 1 206 0 is_stmt 1
	ldr	x0, [x22]	// gBS, gBS
	mov	w1, w24	//, MemoryType
	ldr	x4, [x0,40]	// gBS.7_28->AllocatePages, gBS.7_28->AllocatePages
	mov	x2, x23	//, RealPages
	mov	w0, 0	//,
	add	x3, sp, 72	//,,
	blr	x4	// gBS.7_28->AllocatePages
.LVL39:
	.loc 1 207 0
	tbnz	x0, #63, .L30	//,
	.loc 1 210 0
	ldr	x0, [sp,72]	// Memory.9, Memory
.LVL40:
	add	x1, x21, x0	// D.8538, AlignmentMask, Memory.9
	bic	x21, x1, x21	// AlignedMemory, D.8538, AlignmentMask
.LVL41:
	.loc 1 211 0
	sub	x23, x21, x0	// D.8538, AlignedMemory, Memory.9
.LVL42:
	and	x1, x23, 4095	// D.8538, D.8538,
	cmp	x1, xzr	// D.8538,
	lsr	x23, x23, 12	// D.8538, D.8538,
	csinc	x23, x23, x23, eq	// UnalignedPages, D.8538,
.LVL43:
	.loc 1 212 0
	cbz	x23, .L32	// UnalignedPages,
	.loc 1 216 0
	ldr	x1, [x22]	// gBS, gBS
	ldr	x2, [x1,48]	// gBS.7_42->FreePages, gBS.7_42->FreePages
	mov	x1, x23	//, UnalignedPages
	blr	x2	// gBS.7_42->FreePages
.LVL44:
	mov	x24, x0	// Status,
.LVL45:
	.loc 1 217 0
	bl	DebugAssertEnabled	//
.LVL46:
	uxtb	w0, w0	// D.8537,
	cbz	w0, .L32	// D.8537,
	.loc 1 217 0 is_stmt 0 discriminator 1
	tbz	x24, #63, .L32	// Status,
	bl	DebugPrintEnabled	//
.LVL47:
	uxtb	w0, w0	// D.8537,
	cbz	w0, .L35	// D.8537,
	mov	x0, 2147483648	//,
	bl	DebugPrintLevelEnabled	//
.LVL48:
	uxtb	w0, w0	// D.8537,
	cbz	w0, .L35	// D.8537,
	ldr	x1, .LC16	//,
	mov	x0, 2147483648	//,
	mov	x2, x24	//, Status
	bl	DebugPrint	//
.LVL49:
.L35:
	.loc 1 217 0 discriminator 2
	ldr	x0, .LC10	//,
	ldr	x2, .LC17	//,
	mov	x1, 217	//,
	bl	DebugAssert	//
.LVL50:
.L32:
	.loc 1 219 0 is_stmt 1
	add	x0, x21, x20, lsl 12	// Memory.11, AlignedMemory, Pages,
	str	x0, [sp,72]	// Memory.11, Memory
	.loc 1 221 0
	subs	x1, x19, x23	// UnalignedPages, D.8538, UnalignedPages
.LVL51:
	beq	.L37	//,
	.loc 1 225 0
	ldr	x2, [x22]	// gBS, gBS
	ldr	x2, [x2,48]	// gBS.7_59->FreePages, gBS.7_59->FreePages
	blr	x2	// gBS.7_59->FreePages
.LVL52:
	mov	x19, x0	// Status,
.LVL53:
	.loc 1 226 0
	bl	DebugAssertEnabled	//
.LVL54:
	uxtb	w0, w0	// D.8537,
	cbz	w0, .L37	// D.8537,
	.loc 1 226 0 is_stmt 0 discriminator 1
	tbz	x19, #63, .L37	// Status,
	bl	DebugPrintEnabled	//
.LVL55:
	uxtb	w0, w0	// D.8537,
	cbz	w0, .L39	// D.8537,
	mov	x0, 2147483648	//,
	bl	DebugPrintLevelEnabled	//
.LVL56:
	uxtb	w0, w0	// D.8537,
	cbz	w0, .L39	// D.8537,
	ldr	x1, .LC16	//,
	mov	x0, 2147483648	//,
	mov	x2, x19	//, Status
	bl	DebugPrint	//
.LVL57:
.L39:
	.loc 1 226 0 discriminator 2
	ldr	x0, .LC10	//,
	ldr	x2, .LC17	//,
	mov	x1, 226	//,
	bl	DebugAssert	//
.LVL58:
	b	.L37	//
.LVL59:
.L28:
	.loc 1 232 0 is_stmt 1
	ldr	x0, [x22]	// gBS, gBS
	mov	w1, w24	//, MemoryType
	ldr	x4, [x0,40]	// gBS.7_72->AllocatePages, gBS.7_72->AllocatePages
	mov	x2, x20	//, Pages
	mov	w0, 0	//,
	add	x3, sp, 72	//,,
	blr	x4	// gBS.7_72->AllocatePages
.LVL60:
	.loc 1 233 0
	tbnz	x0, #63, .L30	//,
	.loc 1 236 0
	ldr	x21, [sp,72]	// AlignedMemory, Memory
.LVL61:
.L37:
	.loc 1 238 0
	mov	x0, x21	// D.8536, AlignedMemory
.LVL62:
.L27:
	.loc 1 239 0
	ldp	x19, x20, [sp]	//,,
.LVL63:
	ldp	x21, x22, [sp,16]	//,,
	ldp	x23, x24, [sp,32]	//,,
	ldr	x30, [sp,48]	//,
	add	sp, sp, 80	//,,
	.cfi_restore 30
	.cfi_restore 24
	.cfi_restore 23
	.cfi_restore 22
	.cfi_restore 21
	.cfi_restore 20
	.cfi_restore 19
	.cfi_def_cfa_offset 0
	ret
	.cfi_endproc
.LFE5:
	.size	InternalAllocateAlignedPages, .-InternalAllocateAlignedPages
	.align	3
.LC10:
	.xword	.LC1
	.align	3
.LC12:
	.xword	.LC11
	.align	3
.LC14:
	.xword	.LC13
	.align	3
.LC15:
	.xword	gBS
	.align	3
.LC16:
	.xword	.LC6
	.align	3
.LC17:
	.xword	.LC8
	.section	.text.AllocateAlignedPages,"ax",%progbits
	.align	2
	.global	AllocateAlignedPages
	.type	AllocateAlignedPages, %function
AllocateAlignedPages:
.LFB6:
	.loc 1 265 0
	.cfi_startproc
.LVL64:
	.loc 1 265 0
	mov	x3, x0	// Pages, Pages
	mov	x2, x1	// Alignment, Alignment
	.loc 1 266 0
	mov	w0, 4	//,
.LVL65:
	mov	x1, x3	//, Pages
.LVL66:
	b	InternalAllocateAlignedPages	//
.LVL67:
	.cfi_endproc
.LFE6:
	.size	AllocateAlignedPages, .-AllocateAlignedPages
	.section	.text.AllocateAlignedRuntimePages,"ax",%progbits
	.align	2
	.global	AllocateAlignedRuntimePages
	.type	AllocateAlignedRuntimePages, %function
AllocateAlignedRuntimePages:
.LFB7:
	.loc 1 293 0
	.cfi_startproc
.LVL68:
	.loc 1 293 0
	mov	x3, x0	// Pages, Pages
	mov	x2, x1	// Alignment, Alignment
	.loc 1 294 0
	mov	w0, 6	//,
.LVL69:
	mov	x1, x3	//, Pages
.LVL70:
	b	InternalAllocateAlignedPages	//
.LVL71:
	.cfi_endproc
.LFE7:
	.size	AllocateAlignedRuntimePages, .-AllocateAlignedRuntimePages
	.section	.text.AllocateAlignedReservedPages,"ax",%progbits
	.align	2
	.global	AllocateAlignedReservedPages
	.type	AllocateAlignedReservedPages, %function
AllocateAlignedReservedPages:
.LFB8:
	.loc 1 321 0
	.cfi_startproc
.LVL72:
	.loc 1 321 0
	mov	x3, x0	// Pages, Pages
	mov	x2, x1	// Alignment, Alignment
	.loc 1 322 0
	mov	w0, 0	//,
.LVL73:
	mov	x1, x3	//, Pages
.LVL74:
	b	InternalAllocateAlignedPages	//
.LVL75:
	.cfi_endproc
.LFE8:
	.size	AllocateAlignedReservedPages, .-AllocateAlignedReservedPages
	.section	.text.FreeAlignedPages,"ax",%progbits
	.align	2
	.global	FreeAlignedPages
	.type	FreeAlignedPages, %function
FreeAlignedPages:
.LFB9:
	.loc 1 348 0
	.cfi_startproc
.LVL76:
	sub	sp, sp, #32	//,,
	.cfi_def_cfa_offset 32
	stp	x19, x20, [sp]	//,,
	str	x30, [sp,16]	//,
	.cfi_offset 19, -32
	.cfi_offset 20, -24
	.cfi_offset 30, -16
	.loc 1 348 0
	mov	x20, x0	// Buffer, Buffer
	mov	x19, x1	// Pages, Pages
	.loc 1 351 0
	bl	DebugAssertEnabled	//
.LVL77:
	uxtb	w0, w0	// D.8556,
	cbz	w0, .L69	// D.8556,
	.loc 1 351 0 is_stmt 0 discriminator 1
	cbnz	x19, .L69	// Pages,
	ldr	x0, .LC18	//,
	ldr	x2, .LC19	//,
	mov	x1, 351	//,
	bl	DebugAssert	//
.LVL78:
.L69:
	.loc 1 352 0 is_stmt 1
	ldr	x0, .LC20	// tmp88,
	mov	x1, x19	//, Pages
	ldr	x0, [x0]	// gBS, gBS
	ldr	x2, [x0,48]	// gBS.12_9->FreePages, gBS.12_9->FreePages
	mov	x0, x20	//, Buffer
	blr	x2	// gBS.12_9->FreePages
.LVL79:
	mov	x19, x0	// Status,
.LVL80:
	.loc 1 353 0
	bl	DebugAssertEnabled	//
.LVL81:
	uxtb	w0, w0	// D.8556,
	cbz	w0, .L68	// D.8556,
	.loc 1 353 0 is_stmt 0 discriminator 1
	tbz	x19, #63, .L68	// Status,
	bl	DebugPrintEnabled	//
.LVL82:
	uxtb	w0, w0	// D.8556,
	cbz	w0, .L72	// D.8556,
	mov	x0, 2147483648	//,
	bl	DebugPrintLevelEnabled	//
.LVL83:
	uxtb	w0, w0	// D.8556,
	cbz	w0, .L72	// D.8556,
	ldr	x1, .LC21	//,
	mov	x0, 2147483648	//,
	mov	x2, x19	//, Status
	bl	DebugPrint	//
.LVL84:
.L72:
	.loc 1 354 0 is_stmt 1 discriminator 2
	ldp	x19, x20, [sp]	//,,
.LVL85:
	ldr	x30, [sp,16]	//,
	.loc 1 353 0 discriminator 2
	ldr	x0, .LC18	//,
	ldr	x2, .LC22	//,
	mov	x1, 353	//,
	.loc 1 354 0 discriminator 2
	add	sp, sp, 32	//,,
	.cfi_remember_state
	.cfi_restore 30
	.cfi_restore 20
	.cfi_restore 19
	.cfi_def_cfa_offset 0
	.loc 1 353 0 discriminator 2
	b	DebugAssert	//
.LVL86:
.L68:
	.cfi_restore_state
	.loc 1 354 0
	ldp	x19, x20, [sp]	//,,
.LVL87:
	ldr	x30, [sp,16]	//,
	add	sp, sp, 32	//,,
	.cfi_restore 30
	.cfi_restore 20
	.cfi_restore 19
	.cfi_def_cfa_offset 0
	ret
	.cfi_endproc
.LFE9:
	.size	FreeAlignedPages, .-FreeAlignedPages
	.align	3
.LC18:
	.xword	.LC1
	.align	3
.LC19:
	.xword	.LC3
	.align	3
.LC20:
	.xword	gBS
	.align	3
.LC21:
	.xword	.LC6
	.align	3
.LC22:
	.xword	.LC8
	.section	.text.InternalAllocatePool,"ax",%progbits
	.align	2
	.global	InternalAllocatePool
	.type	InternalAllocatePool, %function
InternalAllocatePool:
.LFB10:
	.loc 1 374 0
	.cfi_startproc
.LVL88:
	sub	sp, sp, #32	//,,
	.cfi_def_cfa_offset 32
	.loc 1 378 0
	ldr	x2, .LC23	// tmp82,
	.loc 1 374 0
	str	x30, [sp]	//,
	.cfi_offset 30, -32
	.loc 1 378 0
	ldr	x2, [x2]	// gBS, gBS
	ldr	x3, [x2,64]	// gBS.15_3->AllocatePool, gBS.15_3->AllocatePool
	add	x2, sp, 24	//,,
	blr	x3	// gBS.15_3->AllocatePool
.LVL89:
	.loc 1 379 0
	tbz	x0, #63, .L84	//,
	.loc 1 380 0
	str	xzr, [sp,24]	//, Memory
.L84:
	.loc 1 383 0
	ldr	x0, [sp,24]	//, Memory
.LVL90:
	ldr	x30, [sp]	//,
	add	sp, sp, 32	//,,
	.cfi_restore 30
	.cfi_def_cfa_offset 0
	ret
	.cfi_endproc
.LFE10:
	.size	InternalAllocatePool, .-InternalAllocatePool
	.align	3
.LC23:
	.xword	gBS
	.section	.text.AllocatePool,"ax",%progbits
	.align	2
	.global	AllocatePool
	.type	AllocatePool, %function
AllocatePool:
.LFB11:
	.loc 1 402 0
	.cfi_startproc
.LVL91:
	.loc 1 402 0
	mov	x1, x0	// AllocationSize, AllocationSize
	.loc 1 403 0
	mov	w0, 4	//,
.LVL92:
	b	InternalAllocatePool	//
.LVL93:
	.cfi_endproc
.LFE11:
	.size	AllocatePool, .-AllocatePool
	.section	.text.AllocateRuntimePool,"ax",%progbits
	.align	2
	.global	AllocateRuntimePool
	.type	AllocateRuntimePool, %function
AllocateRuntimePool:
.LFB12:
	.loc 1 423 0
	.cfi_startproc
.LVL94:
	.loc 1 423 0
	mov	x1, x0	// AllocationSize, AllocationSize
	.loc 1 424 0
	mov	w0, 6	//,
.LVL95:
	b	InternalAllocatePool	//
.LVL96:
	.cfi_endproc
.LFE12:
	.size	AllocateRuntimePool, .-AllocateRuntimePool
	.section	.text.AllocateReservedPool,"ax",%progbits
	.align	2
	.global	AllocateReservedPool
	.type	AllocateReservedPool, %function
AllocateReservedPool:
.LFB13:
	.loc 1 444 0
	.cfi_startproc
.LVL97:
	.loc 1 444 0
	mov	x1, x0	// AllocationSize, AllocationSize
	.loc 1 445 0
	mov	w0, 0	//,
.LVL98:
	b	InternalAllocatePool	//
.LVL99:
	.cfi_endproc
.LFE13:
	.size	AllocateReservedPool, .-AllocateReservedPool
	.section	.text.InternalAllocateZeroPool,"ax",%progbits
	.align	2
	.global	InternalAllocateZeroPool
	.type	InternalAllocateZeroPool, %function
InternalAllocateZeroPool:
.LFB14:
	.loc 1 467 0
	.cfi_startproc
.LVL100:
	sub	sp, sp, #16	//,,
	.cfi_def_cfa_offset 16
	stp	x19, x30, [sp]	//,,
	.cfi_offset 19, -16
	.cfi_offset 30, -8
	.loc 1 467 0
	mov	x19, x1	// AllocationSize, AllocationSize
	.loc 1 470 0
	bl	InternalAllocatePool	//
.LVL101:
	.loc 1 471 0
	cbz	x0, .L89	//,
	.loc 1 472 0
	mov	x1, x19	//, AllocationSize
	.loc 1 475 0
	ldp	x19, x30, [sp]	//,,
.LVL102:
	add	sp, sp, 16	//,,
	.cfi_remember_state
	.cfi_restore 30
	.cfi_restore 19
	.cfi_def_cfa_offset 0
	.loc 1 472 0
	b	ZeroMem	//
.LVL103:
.L89:
	.cfi_restore_state
	.loc 1 475 0
	ldp	x19, x30, [sp]	//,,
.LVL104:
	add	sp, sp, 16	//,,
	.cfi_restore 30
	.cfi_restore 19
	.cfi_def_cfa_offset 0
	ret
	.cfi_endproc
.LFE14:
	.size	InternalAllocateZeroPool, .-InternalAllocateZeroPool
	.section	.text.AllocateZeroPool,"ax",%progbits
	.align	2
	.global	AllocateZeroPool
	.type	AllocateZeroPool, %function
AllocateZeroPool:
.LFB15:
	.loc 1 495 0
	.cfi_startproc
.LVL105:
	.loc 1 495 0
	mov	x1, x0	// AllocationSize, AllocationSize
	.loc 1 496 0
	mov	w0, 4	//,
.LVL106:
	b	InternalAllocateZeroPool	//
.LVL107:
	.cfi_endproc
.LFE15:
	.size	AllocateZeroPool, .-AllocateZeroPool
	.section	.text.AllocateRuntimeZeroPool,"ax",%progbits
	.align	2
	.global	AllocateRuntimeZeroPool
	.type	AllocateRuntimeZeroPool, %function
AllocateRuntimeZeroPool:
.LFB16:
	.loc 1 517 0
	.cfi_startproc
.LVL108:
	.loc 1 517 0
	mov	x1, x0	// AllocationSize, AllocationSize
	.loc 1 518 0
	mov	w0, 6	//,
.LVL109:
	b	InternalAllocateZeroPool	//
.LVL110:
	.cfi_endproc
.LFE16:
	.size	AllocateRuntimeZeroPool, .-AllocateRuntimeZeroPool
	.section	.text.AllocateReservedZeroPool,"ax",%progbits
	.align	2
	.global	AllocateReservedZeroPool
	.type	AllocateReservedZeroPool, %function
AllocateReservedZeroPool:
.LFB17:
	.loc 1 539 0
	.cfi_startproc
.LVL111:
	.loc 1 539 0
	mov	x1, x0	// AllocationSize, AllocationSize
	.loc 1 540 0
	mov	w0, 0	//,
.LVL112:
	b	InternalAllocateZeroPool	//
.LVL113:
	.cfi_endproc
.LFE17:
	.size	AllocateReservedZeroPool, .-AllocateReservedZeroPool
	.section	.text.InternalAllocateCopyPool,"ax",%progbits
	.align	2
	.global	InternalAllocateCopyPool
	.type	InternalAllocateCopyPool, %function
InternalAllocateCopyPool:
.LFB18:
	.loc 1 566 0
	.cfi_startproc
.LVL114:
	sub	sp, sp, #32	//,,
	.cfi_def_cfa_offset 32
	stp	x19, x20, [sp]	//,,
	stp	x21, x30, [sp,16]	//,,
	.cfi_offset 19, -32
	.cfi_offset 20, -24
	.cfi_offset 21, -16
	.cfi_offset 30, -8
	.loc 1 566 0
	mov	x19, x1	// AllocationSize, AllocationSize
	mov	w21, w0	// PoolType, PoolType
	mov	x20, x2	// Buffer, Buffer
	.loc 1 569 0
	bl	DebugAssertEnabled	//
.LVL115:
	uxtb	w0, w0	// D.8584,
	cbz	w0, .L94	// D.8584,
	.loc 1 569 0 is_stmt 0 discriminator 1
	cbnz	x20, .L94	// Buffer,
	ldr	x0, .LC24	//,
	ldr	x2, .LC26	//,
	mov	x1, 569	//,
	bl	DebugAssert	//
.LVL116:
.L94:
	.loc 1 570 0 is_stmt 1
	bl	DebugAssertEnabled	//
.LVL117:
	uxtb	w0, w0	// D.8584,
	cbz	w0, .L95	// D.8584,
	.loc 1 570 0 is_stmt 0 discriminator 1
	neg	x0, x20	// D.8585, Buffer
	cmp	x19, x0	// AllocationSize, D.8585
	bls	.L95	//,
	ldr	x0, .LC24	//,
	ldr	x2, .LC28	//,
	mov	x1, 570	//,
	bl	DebugAssert	//
.LVL118:
.L95:
	.loc 1 572 0 is_stmt 1
	mov	w0, w21	//, PoolType
	mov	x1, x19	//, AllocationSize
	bl	InternalAllocatePool	//
.LVL119:
	.loc 1 573 0
	cbz	x0, .L96	//,
	.loc 1 574 0
	mov	x1, x20	//, Buffer
	mov	x2, x19	//, AllocationSize
	.loc 1 577 0
	ldp	x21, x30, [sp,16]	//,,
.LVL120:
	ldp	x19, x20, [sp]	//,,
.LVL121:
	add	sp, sp, 32	//,,
	.cfi_remember_state
	.cfi_restore 30
	.cfi_restore 21
	.cfi_restore 20
	.cfi_restore 19
	.cfi_def_cfa_offset 0
	.loc 1 574 0
	b	CopyMem	//
.LVL122:
.L96:
	.cfi_restore_state
	.loc 1 577 0
	ldp	x19, x20, [sp]	//,,
.LVL123:
	ldp	x21, x30, [sp,16]	//,,
.LVL124:
	add	sp, sp, 32	//,,
	.cfi_restore 30
	.cfi_restore 21
	.cfi_restore 20
	.cfi_restore 19
	.cfi_def_cfa_offset 0
	ret
	.cfi_endproc
.LFE18:
	.size	InternalAllocateCopyPool, .-InternalAllocateCopyPool
	.align	3
.LC24:
	.xword	.LC1
	.align	3
.LC26:
	.xword	.LC25
	.align	3
.LC28:
	.xword	.LC27
	.section	.text.AllocateCopyPool,"ax",%progbits
	.align	2
	.global	AllocateCopyPool
	.type	AllocateCopyPool, %function
AllocateCopyPool:
.LFB19:
	.loc 1 602 0
	.cfi_startproc
.LVL125:
	.loc 1 602 0
	mov	x3, x0	// AllocationSize, AllocationSize
	mov	x2, x1	// Buffer, Buffer
	.loc 1 603 0
	mov	w0, 4	//,
.LVL126:
	mov	x1, x3	//, AllocationSize
.LVL127:
	b	InternalAllocateCopyPool	//
.LVL128:
	.cfi_endproc
.LFE19:
	.size	AllocateCopyPool, .-AllocateCopyPool
	.section	.text.AllocateRuntimeCopyPool,"ax",%progbits
	.align	2
	.global	AllocateRuntimeCopyPool
	.type	AllocateRuntimeCopyPool, %function
AllocateRuntimeCopyPool:
.LFB20:
	.loc 1 629 0
	.cfi_startproc
.LVL129:
	.loc 1 629 0
	mov	x3, x0	// AllocationSize, AllocationSize
	mov	x2, x1	// Buffer, Buffer
	.loc 1 630 0
	mov	w0, 6	//,
.LVL130:
	mov	x1, x3	//, AllocationSize
.LVL131:
	b	InternalAllocateCopyPool	//
.LVL132:
	.cfi_endproc
.LFE20:
	.size	AllocateRuntimeCopyPool, .-AllocateRuntimeCopyPool
	.section	.text.AllocateReservedCopyPool,"ax",%progbits
	.align	2
	.global	AllocateReservedCopyPool
	.type	AllocateReservedCopyPool, %function
AllocateReservedCopyPool:
.LFB21:
	.loc 1 656 0
	.cfi_startproc
.LVL133:
	.loc 1 656 0
	mov	x3, x0	// AllocationSize, AllocationSize
	mov	x2, x1	// Buffer, Buffer
	.loc 1 657 0
	mov	w0, 0	//,
.LVL134:
	mov	x1, x3	//, AllocationSize
.LVL135:
	b	InternalAllocateCopyPool	//
.LVL136:
	.cfi_endproc
.LFE21:
	.size	AllocateReservedCopyPool, .-AllocateReservedCopyPool
	.section	.text.FreePool,"ax",%progbits
	.align	2
	.global	FreePool
	.type	FreePool, %function
FreePool:
.LFB26:
	.loc 1 815 0
	.cfi_startproc
.LVL137:
	sub	sp, sp, #16	//,,
	.cfi_def_cfa_offset 16
	.loc 1 818 0
	ldr	x1, .LC29	// tmp82,
	.loc 1 815 0
	stp	x19, x30, [sp]	//,,
	.cfi_offset 19, -16
	.cfi_offset 30, -8
	.loc 1 818 0
	ldr	x1, [x1]	// gBS, gBS
	ldr	x1, [x1,72]	// gBS.18_4->FreePool, gBS.18_4->FreePool
	blr	x1	// gBS.18_4->FreePool
.LVL138:
	mov	x19, x0	// Status,
.LVL139:
	.loc 1 819 0
	bl	DebugAssertEnabled	//
.LVL140:
	uxtb	w0, w0	// D.8600,
	cbz	w0, .L106	// D.8600,
	.loc 1 819 0 is_stmt 0 discriminator 1
	tbz	x19, #63, .L106	// Status,
	bl	DebugPrintEnabled	//
.LVL141:
	uxtb	w0, w0	// D.8600,
	cbz	w0, .L109	// D.8600,
	mov	x0, 2147483648	//,
	bl	DebugPrintLevelEnabled	//
.LVL142:
	uxtb	w0, w0	// D.8600,
	cbz	w0, .L109	// D.8600,
	ldr	x1, .LC30	//,
	mov	x0, 2147483648	//,
	mov	x2, x19	//, Status
	bl	DebugPrint	//
.LVL143:
.L109:
	.loc 1 820 0 is_stmt 1 discriminator 2
	ldp	x19, x30, [sp]	//,,
.LVL144:
	.loc 1 819 0 discriminator 2
	ldr	x0, .LC31	//,
	ldr	x2, .LC32	//,
	mov	x1, 819	//,
	.loc 1 820 0 discriminator 2
	add	sp, sp, 16	//,,
	.cfi_remember_state
	.cfi_restore 30
	.cfi_restore 19
	.cfi_def_cfa_offset 0
	.loc 1 819 0 discriminator 2
	b	DebugAssert	//
.LVL145:
.L106:
	.cfi_restore_state
	.loc 1 820 0
	ldp	x19, x30, [sp]	//,,
.LVL146:
	add	sp, sp, 16	//,,
	.cfi_restore 30
	.cfi_restore 19
	.cfi_def_cfa_offset 0
	ret
	.cfi_endproc
.LFE26:
	.size	FreePool, .-FreePool
	.align	3
.LC29:
	.xword	gBS
	.align	3
.LC30:
	.xword	.LC6
	.align	3
.LC31:
	.xword	.LC1
	.align	3
.LC32:
	.xword	.LC8
	.section	.text.InternalReallocatePool,"ax",%progbits
	.align	2
	.global	InternalReallocatePool
	.type	InternalReallocatePool, %function
InternalReallocatePool:
.LFB22:
	.loc 1 689 0
	.cfi_startproc
.LVL147:
	sub	sp, sp, #48	//,,
	.cfi_def_cfa_offset 48
	stp	x19, x20, [sp]	//,,
	.cfi_offset 19, -48
	.cfi_offset 20, -40
	mov	x20, x1	// OldSize, OldSize
	.loc 1 692 0
	mov	x1, x2	//, NewSize
.LVL148:
	.loc 1 689 0
	stp	x21, x30, [sp,16]	//,,
	.cfi_offset 21, -32
	.cfi_offset 30, -24
	.loc 1 692 0
	str	x2, [sp,40]	//,
	.loc 1 689 0
	mov	x19, x3	// OldBuffer, OldBuffer
	.loc 1 692 0
	bl	InternalAllocateZeroPool	//
.LVL149:
	mov	x21, x0	// NewBuffer,
.LVL150:
	.loc 1 693 0
	ldr	x2, [sp,40]	//,
	cbz	x0, .L118	// NewBuffer,
	cbz	x19, .L118	// OldBuffer,
	.loc 1 694 0
	cmp	x2, x20	// NewSize, OldSize
	mov	x1, x19	//, OldBuffer
	csel	x2, x2, x20, ls	//, NewSize, OldSize,
	bl	CopyMem	//
.LVL151:
	.loc 1 695 0
	mov	x0, x19	//, OldBuffer
	bl	FreePool	//
.LVL152:
.L118:
	.loc 1 698 0
	mov	x0, x21	//, NewBuffer
	ldp	x19, x20, [sp]	//,,
.LVL153:
	ldp	x21, x30, [sp,16]	//,,
.LVL154:
	add	sp, sp, 48	//,,
	.cfi_restore 30
	.cfi_restore 21
	.cfi_restore 20
	.cfi_restore 19
	.cfi_def_cfa_offset 0
	ret
	.cfi_endproc
.LFE22:
	.size	InternalReallocatePool, .-InternalReallocatePool
	.section	.text.ReallocatePool,"ax",%progbits
	.align	2
	.global	ReallocatePool
	.type	ReallocatePool, %function
ReallocatePool:
.LFB23:
	.loc 1 728 0
	.cfi_startproc
.LVL155:
	.loc 1 728 0
	mov	x5, x0	// OldSize, OldSize
	mov	x4, x1	// NewSize, NewSize
	mov	x3, x2	// OldBuffer, OldBuffer
	.loc 1 729 0
	mov	w0, 4	//,
.LVL156:
	mov	x1, x5	//, OldSize
.LVL157:
	mov	x2, x4	//, NewSize
.LVL158:
	b	InternalReallocatePool	//
.LVL159:
	.cfi_endproc
.LFE23:
	.size	ReallocatePool, .-ReallocatePool
	.section	.text.ReallocateRuntimePool,"ax",%progbits
	.align	2
	.global	ReallocateRuntimePool
	.type	ReallocateRuntimePool, %function
ReallocateRuntimePool:
.LFB24:
	.loc 1 760 0
	.cfi_startproc
.LVL160:
	.loc 1 760 0
	mov	x5, x0	// OldSize, OldSize
	mov	x4, x1	// NewSize, NewSize
	mov	x3, x2	// OldBuffer, OldBuffer
	.loc 1 761 0
	mov	w0, 6	//,
.LVL161:
	mov	x1, x5	//, OldSize
.LVL162:
	mov	x2, x4	//, NewSize
.LVL163:
	b	InternalReallocatePool	//
.LVL164:
	.cfi_endproc
.LFE24:
	.size	ReallocateRuntimePool, .-ReallocateRuntimePool
	.section	.text.ReallocateReservedPool,"ax",%progbits
	.align	2
	.global	ReallocateReservedPool
	.type	ReallocateReservedPool, %function
ReallocateReservedPool:
.LFB25:
	.loc 1 792 0
	.cfi_startproc
.LVL165:
	.loc 1 792 0
	mov	x5, x0	// OldSize, OldSize
	mov	x4, x1	// NewSize, NewSize
	mov	x3, x2	// OldBuffer, OldBuffer
	.loc 1 793 0
	mov	w0, 0	//,
.LVL166:
	mov	x1, x5	//, OldSize
.LVL167:
	mov	x2, x4	//, NewSize
.LVL168:
	b	InternalReallocatePool	//
.LVL169:
	.cfi_endproc
.LFE25:
	.size	ReallocateReservedPool, .-ReallocateReservedPool
	.section	.rodata.str1.1,"aMS",%progbits,1
.LC1:
	.string	"/root/next-loader/src/edk2/UDK2018/MyWorkSpace/MdePkg/Library/UefiMemoryAllocationLib/MemoryAllocationLib.c"
.LC3:
	.string	"Pages != 0"
.LC6:
	.string	"\nASSERT_EFI_ERROR (Status = %r)\n"
.LC8:
	.string	"!EFI_ERROR (Status)"
.LC11:
	.string	"(Alignment & (Alignment - 1)) == 0"
.LC13:
	.string	"RealPages > Pages"
.LC25:
	.string	"Buffer != ((void *) 0)"
.LC27:
	.string	"AllocationSize <= (0xFFFFFFFFFFFFFFFFULL - (UINTN) Buffer + 1)"
	.text
.Letext0:
	.file 2 "/root/next-loader/src/edk2/UDK2018/MyWorkSpace/MdePkg/Include/AArch64/ProcessorBind.h"
	.file 3 "/root/next-loader/src/edk2/UDK2018/MyWorkSpace/MdePkg/Include/Base.h"
	.file 4 "/root/next-loader/src/edk2/UDK2018/MyWorkSpace/MdePkg/Include/Uefi/UefiBaseType.h"
	.file 5 "/root/next-loader/src/edk2/UDK2018/MyWorkSpace/MdePkg/Include/Uefi/UefiMultiPhase.h"
	.file 6 "/root/next-loader/src/edk2/UDK2018/MyWorkSpace/MdePkg/Include/Protocol/DevicePath.h"
	.file 7 "/root/next-loader/src/edk2/UDK2018/MyWorkSpace/MdePkg/Include/Uefi/UefiSpec.h"
	.file 8 "/root/next-loader/src/edk2/UDK2018/MyWorkSpace/MdePkg/Include/Library/DebugLib.h"
	.file 9 "/root/next-loader/src/edk2/UDK2018/MyWorkSpace/MdePkg/Include/Library/BaseMemoryLib.h"
	.file 10 "/root/next-loader/src/edk2/UDK2018/MyWorkSpace/MdePkg/Include/Library/UefiBootServicesTableLib.h"
	.section	.note.GNU-stack,"",%progbits
