	.cpu generic+fp+simd
	.file	"MemLibGuid.c"
// GNU C (GCC) version 4.8.5 20150623 (Red Hat 4.8.5-16) (aarch64-linux-gnu)
//	compiled by GNU C version 4.8.5 20150623 (Red Hat 4.8.5-11), GMP version 6.0.0, MPFR version 3.1.1, MPC version 1.0.1
// GGC heuristics: --param ggc-min-expand=97 --param ggc-min-heapsize=127009
// options passed:  -fpreprocessed MemLibGuid.i -mcmodel=large
// -mlittle-endian
// -auxbase-strip /root/next-loader/src/edk2/UDK2018/MyWorkSpace/Build/MdeModule/RELEASE_GCC49/AARCH64/MdePkg/Library/BaseMemoryLib/BaseMemoryLib/OUTPUT/./MemLibGuid.obj
// -g -g -Os -Wall -Werror -Wno-array-bounds -Wno-address
// -Wno-unused-but-set-variable -fshort-wchar -fno-strict-aliasing
// -fno-short-enums -fverbose-asm -fsigned-char -ffunction-sections
// -fdata-sections -fomit-frame-pointer -fno-builtin
// options enabled:  -faggressive-loop-optimizations
// -fasynchronous-unwind-tables -fauto-inc-dec -fbranch-count-reg
// -fcaller-saves -fcombine-stack-adjustments -fcommon -fcompare-elim
// -fcprop-registers -fcrossjumping -fcse-follow-jumps -fdata-sections
// -fdefer-pop -fdelete-null-pointer-checks -fdevirtualize -fdwarf2-cfi-asm
// -fearly-inlining -feliminate-unused-debug-types
// -fexpensive-optimizations -fforward-propagate -ffunction-cse
// -ffunction-sections -fgcse -fgcse-lm -fgnu-runtime -fgnu-unique
// -fguess-branch-probability -fhoist-adjacent-loads -fident
// -fif-conversion -fif-conversion2 -findirect-inlining -finline
// -finline-atomics -finline-functions -finline-functions-called-once
// -finline-small-functions -fipa-cp -fipa-profile -fipa-pure-const
// -fipa-reference -fipa-sra -fira-hoist-pressure -fira-share-save-slots
// -fira-share-spill-slots -fivopts -fkeep-static-consts
// -fleading-underscore -fmath-errno -fmerge-constants
// -fmerge-debug-strings -fmove-loop-invariants -fomit-frame-pointer
// -foptimize-register-move -foptimize-sibling-calls -fpartial-inlining
// -fpeephole -fpeephole2 -fprefetch-loop-arrays -freg-struct-return
// -fregmove -freorder-blocks -freorder-functions -frerun-cse-after-loop
// -fsched-critical-path-heuristic -fsched-dep-count-heuristic
// -fsched-group-heuristic -fsched-interblock -fsched-last-insn-heuristic
// -fsched-rank-heuristic -fsched-spec -fsched-spec-insn-heuristic
// -fsched-stalled-insns-dep -fschedule-insns2 -fsection-anchors
// -fshow-column -fshrink-wrap -fsigned-zeros -fsplit-ivs-in-unroller
// -fsplit-wide-types -fstrict-overflow -fstrict-volatile-bitfields
// -fsync-libcalls -fthread-jumps -ftoplevel-reorder -ftrapping-math
// -ftree-bit-ccp -ftree-builtin-call-dce -ftree-ccp -ftree-ch
// -ftree-coalesce-vars -ftree-copy-prop -ftree-copyrename -ftree-cselim
// -ftree-dce -ftree-dominator-opts -ftree-dse -ftree-forwprop -ftree-fre
// -ftree-loop-if-convert -ftree-loop-im -ftree-loop-ivcanon
// -ftree-loop-optimize -ftree-parallelize-loops= -ftree-phiprop -ftree-pre
// -ftree-pta -ftree-reassoc -ftree-scev-cprop -ftree-sink
// -ftree-slp-vectorize -ftree-slsr -ftree-sra -ftree-switch-conversion
// -ftree-tail-merge -ftree-ter -ftree-vect-loop-version -ftree-vrp
// -funit-at-a-time -funwind-tables -fvar-tracking
// -fvar-tracking-assignments -fverbose-asm -fzero-initialized-in-bss
// -mglibc -mlittle-endian -momit-leaf-frame-pointer

	.text
.Ltext0:
	.section	.text.CopyGuid,"ax",%progbits
	.align	2
	.global	CopyGuid
	.type	CopyGuid, %function
CopyGuid:
.LFB0:
	.file 1 "/root/next-loader/src/edk2/UDK2018/MyWorkSpace/MdePkg/Library/BaseMemoryLib/MemLibGuid.c"
	.loc 1 49 0
	.cfi_startproc
.LVL0:
	sub	sp, sp, #32	//,,
	.cfi_def_cfa_offset 32
	stp	x19, x20, [sp]	//,,
	.cfi_offset 19, -32
	.cfi_offset 20, -24
	mov	x19, x0	// DestinationGuid, DestinationGuid
	.loc 1 50 0
	mov	x0, x1	//, SourceGuid
.LVL1:
	.loc 1 49 0
	str	x30, [sp,16]	//,
	.cfi_offset 30, -16
	.loc 1 49 0
	mov	x20, x1	// SourceGuid, SourceGuid
	.loc 1 50 0
	bl	ReadUnaligned64	//
.LVL2:
	mov	x1, x0	// D.2705,
	mov	x0, x19	//, DestinationGuid
	bl	WriteUnaligned64	//
.LVL3:
	.loc 1 54 0
	add	x0, x20, 8	//, SourceGuid,
	bl	ReadUnaligned64	//
.LVL4:
	mov	x1, x0	// D.2705,
	add	x0, x19, 8	//, DestinationGuid,
	bl	WriteUnaligned64	//
.LVL5:
	.loc 1 59 0
	mov	x0, x19	//, DestinationGuid
	ldr	x30, [sp,16]	//,
	ldp	x19, x20, [sp]	//,,
.LVL6:
	add	sp, sp, 32	//,,
	.cfi_restore 30
	.cfi_restore 20
	.cfi_restore 19
	.cfi_def_cfa_offset 0
	ret
	.cfi_endproc
.LFE0:
	.size	CopyGuid, .-CopyGuid
	.section	.text.CompareGuid,"ax",%progbits
	.align	2
	.global	CompareGuid
	.type	CompareGuid, %function
CompareGuid:
.LFB1:
	.loc 1 83 0
	.cfi_startproc
.LVL7:
	sub	sp, sp, #48	//,,
	.cfi_def_cfa_offset 48
	str	x30, [sp,32]	//,
	stp	x19, x20, [sp]	//,,
	stp	x21, x22, [sp,16]	//,,
	.cfi_offset 30, -16
	.cfi_offset 19, -48
	.cfi_offset 20, -40
	.cfi_offset 21, -32
	.cfi_offset 22, -24
	.loc 1 83 0
	mov	x19, x1	// Guid2, Guid2
	mov	x20, x0	// Guid1, Guid1
	.loc 1 89 0
	bl	ReadUnaligned64	//
.LVL8:
	mov	x22, x0	// LowPartOfGuid1,
.LVL9:
	.loc 1 90 0
	mov	x0, x19	//, Guid2
.LVL10:
	bl	ReadUnaligned64	//
.LVL11:
	mov	x21, x0	// LowPartOfGuid2,
.LVL12:
	.loc 1 91 0
	add	x0, x20, 8	//, Guid1,
.LVL13:
	bl	ReadUnaligned64	//
.LVL14:
	mov	x20, x0	// HighPartOfGuid1,
.LVL15:
	.loc 1 92 0
	add	x0, x19, 8	//, Guid2,
.LVL16:
	bl	ReadUnaligned64	//
.LVL17:
	.loc 1 94 0
	cmp	x20, x0	// HighPartOfGuid1,
	cset	w1, eq	// tmp90,
	cmp	x22, x21	// LowPartOfGuid1, LowPartOfGuid2
	cset	w0, eq	// tmp92,
.LVL18:
	.loc 1 95 0
	and	w0, w1, w0	//, tmp90, tmp92
	ldp	x19, x20, [sp]	//,,
.LVL19:
	ldp	x21, x22, [sp,16]	//,,
.LVL20:
	ldr	x30, [sp,32]	//,
	add	sp, sp, 48	//,,
	.cfi_restore 30
	.cfi_restore 22
	.cfi_restore 21
	.cfi_restore 20
	.cfi_restore 19
	.cfi_def_cfa_offset 0
	ret
	.cfi_endproc
.LFE1:
	.size	CompareGuid, .-CompareGuid
	.section	.text.ScanGuid,"ax",%progbits
	.align	2
	.global	ScanGuid
	.type	ScanGuid, %function
ScanGuid:
.LFB2:
	.loc 1 126 0
	.cfi_startproc
.LVL21:
	sub	sp, sp, #32	//,,
	.cfi_def_cfa_offset 32
	stp	x19, x20, [sp]	//,,
	stp	x21, x30, [sp,16]	//,,
	.cfi_offset 19, -32
	.cfi_offset 20, -24
	.cfi_offset 21, -16
	.cfi_offset 30, -8
	.loc 1 126 0
	mov	x19, x0	// Buffer, Buffer
	mov	x20, x1	// Length, Length
	mov	x21, x2	// Guid, Guid
	.loc 1 129 0
	bl	DebugAssertEnabled	//
.LVL22:
	uxtb	w0, w0	// D.2727,
	cbz	w0, .L4	// D.2727,
	.loc 1 129 0 is_stmt 0 discriminator 1
	and	x0, x19, 3	// D.2728, Buffer,
	cbz	x0, .L4	// D.2728,
	ldr	x0, .LC1	//,
	ldr	x2, .LC3	//,
	mov	x1, 129	//,
	bl	DebugAssert	//
.LVL23:
.L4:
	.loc 1 130 0 is_stmt 1
	bl	DebugAssertEnabled	//
.LVL24:
	uxtb	w0, w0	// D.2727,
	cbz	w0, .L5	// D.2727,
	.loc 1 130 0 is_stmt 0 discriminator 1
	neg	x0, x19	// D.2728, Buffer
	cmp	x20, x0	// Length, D.2728
	bls	.L5	//,
	ldr	x0, .LC1	//,
	ldr	x2, .LC5	//,
	mov	x1, 130	//,
	bl	DebugAssert	//
.LVL25:
.L5:
	.loc 1 131 0 is_stmt 1
	bl	DebugAssertEnabled	//
.LVL26:
	uxtb	w0, w0	// D.2727,
	cbz	w0, .L6	// D.2727,
	.loc 1 131 0 is_stmt 0 discriminator 1
	and	x0, x20, 15	// D.2728, Length,
	cbz	x0, .L6	// D.2728,
	ldr	x0, .LC1	//,
	ldr	x2, .LC7	//,
	mov	x1, 131	//,
	bl	DebugAssert	//
.LVL27:
.L6:
	.loc 1 134 0 is_stmt 1
	and	x20, x20, -16	// D.2728, Length,
.LVL28:
	add	x20, x19, x20	// Buffer, Buffer, D.2728
.LVL29:
.L7:
	.loc 1 135 0 discriminator 1
	cmp	x19, x20	// Buffer, Buffer
	bcs	.L27	//,
	.loc 1 136 0
	mov	x0, x19	//, Buffer
	mov	x1, x21	//, Guid
	bl	CompareGuid	//
.LVL30:
	uxtb	w0, w0	// D.2727,
	cbnz	w0, .L10	// D.2727,
	.loc 1 139 0
	add	x19, x19, 16	// Buffer, Buffer,
.LVL31:
	b	.L7	//
.L27:
	.loc 1 141 0
	mov	x0, 0	// D.2726,
	b	.L8	//
.L10:
	mov	x0, x19	// D.2726, Buffer
.L8:
	.loc 1 142 0
	ldp	x19, x20, [sp]	//,,
.LVL32:
	ldp	x21, x30, [sp,16]	//,,
.LVL33:
	add	sp, sp, 32	//,,
	.cfi_restore 30
	.cfi_restore 21
	.cfi_restore 20
	.cfi_restore 19
	.cfi_def_cfa_offset 0
	ret
	.cfi_endproc
.LFE2:
	.size	ScanGuid, .-ScanGuid
	.align	3
.LC1:
	.xword	.LC0
	.align	3
.LC3:
	.xword	.LC2
	.align	3
.LC5:
	.xword	.LC4
	.align	3
.LC7:
	.xword	.LC6
	.section	.text.IsZeroGuid,"ax",%progbits
	.align	2
	.global	IsZeroGuid
	.type	IsZeroGuid, %function
IsZeroGuid:
.LFB3:
	.loc 1 163 0
	.cfi_startproc
.LVL34:
	sub	sp, sp, #32	//,,
	.cfi_def_cfa_offset 32
	stp	x19, x20, [sp]	//,,
	str	x30, [sp,16]	//,
	.cfi_offset 19, -32
	.cfi_offset 20, -24
	.cfi_offset 30, -16
	.loc 1 163 0
	mov	x20, x0	// Guid, Guid
	.loc 1 167 0
	bl	ReadUnaligned64	//
.LVL35:
	mov	x19, x0	// LowPartOfGuid,
.LVL36:
	.loc 1 168 0
	add	x0, x20, 8	//, Guid,
.LVL37:
	bl	ReadUnaligned64	//
.LVL38:
	.loc 1 170 0
	orr	x0, x0, x19	// D.2736,, LowPartOfGuid
.LVL39:
	cmp	x0, xzr	// D.2736,
	.loc 1 171 0
	cset	w0, eq	//,
	ldp	x19, x20, [sp]	//,,
.LVL40:
	ldr	x30, [sp,16]	//,
	add	sp, sp, 32	//,,
	.cfi_restore 30
	.cfi_restore 20
	.cfi_restore 19
	.cfi_def_cfa_offset 0
	ret
	.cfi_endproc
.LFE3:
	.size	IsZeroGuid, .-IsZeroGuid
	.section	.rodata.str1.1,"aMS",%progbits,1
.LC0:
	.string	"/root/next-loader/src/edk2/UDK2018/MyWorkSpace/MdePkg/Library/BaseMemoryLib/MemLibGuid.c"
.LC2:
	.string	"((UINTN)Buffer & (sizeof (Guid->Data1) - 1)) == 0"
.LC4:
	.string	"Length <= (0xFFFFFFFFFFFFFFFFULL - (UINTN)Buffer + 1)"
.LC6:
	.string	"(Length & (sizeof (*GuidPtr) - 1)) == 0"
	.text
.Letext0:
	.file 2 "/root/next-loader/src/edk2/UDK2018/MyWorkSpace/MdePkg/Include/AArch64/ProcessorBind.h"
	.file 3 "/root/next-loader/src/edk2/UDK2018/MyWorkSpace/MdePkg/Include/Base.h"
	.file 4 "/root/next-loader/src/edk2/UDK2018/MyWorkSpace/MdePkg/Include/Library/BaseLib.h"
	.file 5 "/root/next-loader/src/edk2/UDK2018/MyWorkSpace/MdePkg/Include/Library/DebugLib.h"
	.section	.note.GNU-stack,"",%progbits
