	.cpu generic+fp+simd
	.file	"DevicePathUtilities.c"
// GNU C (GCC) version 4.8.5 20150623 (Red Hat 4.8.5-16) (aarch64-linux-gnu)
//	compiled by GNU C version 4.8.5 20150623 (Red Hat 4.8.5-11), GMP version 6.0.0, MPFR version 3.1.1, MPC version 1.0.1
// GGC heuristics: --param ggc-min-expand=97 --param ggc-min-heapsize=127009
// options passed:  -fpreprocessed DevicePathUtilities.i -mcmodel=large
// -mlittle-endian
// -auxbase-strip /root/next-loader/src/edk2/UDK2018/MyWorkSpace/Build/MdeModule/RELEASE_GCC49/AARCH64/MdePkg/Library/UefiDevicePathLib/UefiDevicePathLib/OUTPUT/./DevicePathUtilities.obj
// -g -g -Os -Wall -Werror -Wno-array-bounds -Wno-address
// -Wno-unused-but-set-variable -fshort-wchar -fno-strict-aliasing
// -fno-short-enums -fverbose-asm -fsigned-char -ffunction-sections
// -fdata-sections -fomit-frame-pointer -fno-builtin
// options enabled:  -faggressive-loop-optimizations
// -fasynchronous-unwind-tables -fauto-inc-dec -fbranch-count-reg
// -fcaller-saves -fcombine-stack-adjustments -fcommon -fcompare-elim
// -fcprop-registers -fcrossjumping -fcse-follow-jumps -fdata-sections
// -fdefer-pop -fdelete-null-pointer-checks -fdevirtualize -fdwarf2-cfi-asm
// -fearly-inlining -feliminate-unused-debug-types
// -fexpensive-optimizations -fforward-propagate -ffunction-cse
// -ffunction-sections -fgcse -fgcse-lm -fgnu-runtime -fgnu-unique
// -fguess-branch-probability -fhoist-adjacent-loads -fident
// -fif-conversion -fif-conversion2 -findirect-inlining -finline
// -finline-atomics -finline-functions -finline-functions-called-once
// -finline-small-functions -fipa-cp -fipa-profile -fipa-pure-const
// -fipa-reference -fipa-sra -fira-hoist-pressure -fira-share-save-slots
// -fira-share-spill-slots -fivopts -fkeep-static-consts
// -fleading-underscore -fmath-errno -fmerge-constants
// -fmerge-debug-strings -fmove-loop-invariants -fomit-frame-pointer
// -foptimize-register-move -foptimize-sibling-calls -fpartial-inlining
// -fpeephole -fpeephole2 -fprefetch-loop-arrays -freg-struct-return
// -fregmove -freorder-blocks -freorder-functions -frerun-cse-after-loop
// -fsched-critical-path-heuristic -fsched-dep-count-heuristic
// -fsched-group-heuristic -fsched-interblock -fsched-last-insn-heuristic
// -fsched-rank-heuristic -fsched-spec -fsched-spec-insn-heuristic
// -fsched-stalled-insns-dep -fschedule-insns2 -fsection-anchors
// -fshow-column -fshrink-wrap -fsigned-zeros -fsplit-ivs-in-unroller
// -fsplit-wide-types -fstrict-overflow -fstrict-volatile-bitfields
// -fsync-libcalls -fthread-jumps -ftoplevel-reorder -ftrapping-math
// -ftree-bit-ccp -ftree-builtin-call-dce -ftree-ccp -ftree-ch
// -ftree-coalesce-vars -ftree-copy-prop -ftree-copyrename -ftree-cselim
// -ftree-dce -ftree-dominator-opts -ftree-dse -ftree-forwprop -ftree-fre
// -ftree-loop-if-convert -ftree-loop-im -ftree-loop-ivcanon
// -ftree-loop-optimize -ftree-parallelize-loops= -ftree-phiprop -ftree-pre
// -ftree-pta -ftree-reassoc -ftree-scev-cprop -ftree-sink
// -ftree-slp-vectorize -ftree-slsr -ftree-sra -ftree-switch-conversion
// -ftree-tail-merge -ftree-ter -ftree-vect-loop-version -ftree-vrp
// -funit-at-a-time -funwind-tables -fvar-tracking
// -fvar-tracking-assignments -fverbose-asm -fzero-initialized-in-bss
// -mglibc -mlittle-endian -momit-leaf-frame-pointer

	.text
.Ltext0:
	.section	.text.DevicePathType,"ax",%progbits
	.align	2
	.global	DevicePathType
	.type	DevicePathType, %function
DevicePathType:
.LFB1:
	.file 1 "/root/next-loader/src/edk2/UDK2018/MyWorkSpace/MdePkg/Library/UefiDevicePathLib/DevicePathUtilities.c"
	.loc 1 125 0
	.cfi_startproc
.LVL0:
	sub	sp, sp, #16	//,,
	.cfi_def_cfa_offset 16
	stp	x19, x30, [sp]	//,,
	.cfi_offset 19, -16
	.cfi_offset 30, -8
	.loc 1 125 0
	mov	x19, x0	// Node, Node
	.loc 1 126 0
	bl	DebugAssertEnabled	//
.LVL1:
	uxtb	w0, w0	// D.9487,
	cbz	w0, .L2	// D.9487,
	.loc 1 126 0 is_stmt 0 discriminator 1
	cbnz	x19, .L2	// Node,
	ldr	x0, .LC1	//,
	ldr	x2, .LC3	//,
	mov	x1, 126	//,
	bl	DebugAssert	//
.LVL2:
.L2:
	.loc 1 128 0 is_stmt 1
	ldrb	w0, [x19]	//, MEM[(struct EFI_DEVICE_PATH_PROTOCOL *)Node_5(D)].Type
	ldp	x19, x30, [sp]	//,,
.LVL3:
	add	sp, sp, 16	//,,
	.cfi_restore 30
	.cfi_restore 19
	.cfi_def_cfa_offset 0
	ret
	.cfi_endproc
.LFE1:
	.size	DevicePathType, .-DevicePathType
	.align	3
.LC1:
	.xword	.LC0
	.align	3
.LC3:
	.xword	.LC2
	.section	.text.DevicePathSubType,"ax",%progbits
	.align	2
	.global	DevicePathSubType
	.type	DevicePathSubType, %function
DevicePathSubType:
.LFB2:
	.loc 1 147 0
	.cfi_startproc
.LVL4:
	sub	sp, sp, #16	//,,
	.cfi_def_cfa_offset 16
	stp	x19, x30, [sp]	//,,
	.cfi_offset 19, -16
	.cfi_offset 30, -8
	.loc 1 147 0
	mov	x19, x0	// Node, Node
	.loc 1 148 0
	bl	DebugAssertEnabled	//
.LVL5:
	uxtb	w0, w0	// D.9493,
	cbz	w0, .L8	// D.9493,
	.loc 1 148 0 is_stmt 0 discriminator 1
	cbnz	x19, .L8	// Node,
	ldr	x0, .LC4	//,
	ldr	x2, .LC5	//,
	mov	x1, 148	//,
	bl	DebugAssert	//
.LVL6:
.L8:
	.loc 1 150 0 is_stmt 1
	ldrb	w0, [x19,1]	//, MEM[(struct EFI_DEVICE_PATH_PROTOCOL *)Node_5(D)].SubType
	ldp	x19, x30, [sp]	//,,
.LVL7:
	add	sp, sp, 16	//,,
	.cfi_restore 30
	.cfi_restore 19
	.cfi_def_cfa_offset 0
	ret
	.cfi_endproc
.LFE2:
	.size	DevicePathSubType, .-DevicePathSubType
	.align	3
.LC4:
	.xword	.LC0
	.align	3
.LC5:
	.xword	.LC2
	.section	.text.DevicePathNodeLength,"ax",%progbits
	.align	2
	.global	DevicePathNodeLength
	.type	DevicePathNodeLength, %function
DevicePathNodeLength:
.LFB3:
	.loc 1 172 0
	.cfi_startproc
.LVL8:
	sub	sp, sp, #16	//,,
	.cfi_def_cfa_offset 16
	stp	x19, x30, [sp]	//,,
	.cfi_offset 19, -16
	.cfi_offset 30, -8
	.loc 1 172 0
	mov	x19, x0	// Node, Node
	.loc 1 173 0
	bl	DebugAssertEnabled	//
.LVL9:
	uxtb	w0, w0	// D.9497,
	cbz	w0, .L13	// D.9497,
	.loc 1 173 0 is_stmt 0 discriminator 1
	cbnz	x19, .L13	// Node,
	ldr	x0, .LC6	//,
	ldr	x2, .LC7	//,
	mov	x1, 173	//,
	bl	DebugAssert	//
.LVL10:
.L13:
	.loc 1 174 0 is_stmt 1
	add	x0, x19, 2	//, Node,
	bl	ReadUnaligned16	//
.LVL11:
	.loc 1 175 0
	uxth	x0, w0	//,
	ldp	x19, x30, [sp]	//,,
.LVL12:
	add	sp, sp, 16	//,,
	.cfi_restore 30
	.cfi_restore 19
	.cfi_def_cfa_offset 0
	ret
	.cfi_endproc
.LFE3:
	.size	DevicePathNodeLength, .-DevicePathNodeLength
	.align	3
.LC6:
	.xword	.LC0
	.align	3
.LC7:
	.xword	.LC2
	.section	.text.NextDevicePathNode,"ax",%progbits
	.align	2
	.global	NextDevicePathNode
	.type	NextDevicePathNode, %function
NextDevicePathNode:
.LFB4:
	.loc 1 196 0
	.cfi_startproc
.LVL13:
	sub	sp, sp, #16	//,,
	.cfi_def_cfa_offset 16
	stp	x19, x30, [sp]	//,,
	.cfi_offset 19, -16
	.cfi_offset 30, -8
	.loc 1 196 0
	mov	x19, x0	// Node, Node
	.loc 1 197 0
	bl	DebugAssertEnabled	//
.LVL14:
	uxtb	w0, w0	// D.9503,
	cbz	w0, .L18	// D.9503,
	.loc 1 197 0 is_stmt 0 discriminator 1
	cbnz	x19, .L18	// Node,
	ldr	x0, .LC8	//,
	ldr	x2, .LC9	//,
	mov	x1, 197	//,
	bl	DebugAssert	//
.LVL15:
.L18:
	.loc 1 198 0 is_stmt 1
	mov	x0, x19	//, Node
	bl	DevicePathNodeLength	//
.LVL16:
	.loc 1 199 0
	add	x0, x19, x0	//, Node,
	ldp	x19, x30, [sp]	//,,
.LVL17:
	add	sp, sp, 16	//,,
	.cfi_restore 30
	.cfi_restore 19
	.cfi_def_cfa_offset 0
	ret
	.cfi_endproc
.LFE4:
	.size	NextDevicePathNode, .-NextDevicePathNode
	.align	3
.LC8:
	.xword	.LC0
	.align	3
.LC9:
	.xword	.LC2
	.section	.text.IsDevicePathEndType,"ax",%progbits
	.align	2
	.global	IsDevicePathEndType
	.type	IsDevicePathEndType, %function
IsDevicePathEndType:
.LFB5:
	.loc 1 226 0
	.cfi_startproc
.LVL18:
	sub	sp, sp, #16	//,,
	.cfi_def_cfa_offset 16
	stp	x19, x30, [sp]	//,,
	.cfi_offset 19, -16
	.cfi_offset 30, -8
	.loc 1 226 0
	mov	x19, x0	// Node, Node
	.loc 1 227 0
	bl	DebugAssertEnabled	//
.LVL19:
	uxtb	w0, w0	// D.9508,
	cbz	w0, .L23	// D.9508,
	.loc 1 227 0 is_stmt 0 discriminator 1
	cbnz	x19, .L23	// Node,
	ldr	x0, .LC10	//,
	ldr	x2, .LC11	//,
	mov	x1, 227	//,
	bl	DebugAssert	//
.LVL20:
.L23:
	.loc 1 228 0 is_stmt 1
	mov	x0, x19	//, Node
	bl	DevicePathType	//
.LVL21:
	uxtb	w0, w0	// D.9508,
	cmp	w0, 127	// D.9508,
	.loc 1 229 0
	cset	w0, eq	//,
	ldp	x19, x30, [sp]	//,,
.LVL22:
	add	sp, sp, 16	//,,
	.cfi_restore 30
	.cfi_restore 19
	.cfi_def_cfa_offset 0
	ret
	.cfi_endproc
.LFE5:
	.size	IsDevicePathEndType, .-IsDevicePathEndType
	.align	3
.LC10:
	.xword	.LC0
	.align	3
.LC11:
	.xword	.LC2
	.section	.text.IsDevicePathEnd,"ax",%progbits
	.align	2
	.global	IsDevicePathEnd
	.type	IsDevicePathEnd, %function
IsDevicePathEnd:
.LFB6:
	.loc 1 253 0
	.cfi_startproc
.LVL23:
	sub	sp, sp, #16	//,,
	.cfi_def_cfa_offset 16
	stp	x19, x30, [sp]	//,,
	.cfi_offset 19, -16
	.cfi_offset 30, -8
	.loc 1 253 0
	mov	x19, x0	// Node, Node
	.loc 1 254 0
	bl	DebugAssertEnabled	//
.LVL24:
	uxtb	w0, w0	// D.9513,
	cbz	w0, .L28	// D.9513,
	.loc 1 254 0 is_stmt 0 discriminator 1
	cbnz	x19, .L28	// Node,
	ldr	x0, .LC12	//,
	ldr	x2, .LC13	//,
	mov	x1, 254	//,
	bl	DebugAssert	//
.LVL25:
.L28:
	.loc 1 255 0 is_stmt 1
	mov	x0, x19	//, Node
	bl	IsDevicePathEndType	//
.LVL26:
	uxtb	w1, w0	// D.9513,
	mov	w0, 0	// iftmp.1,
	cbz	w1, .L29	// D.9513,
	.loc 1 255 0 is_stmt 0 discriminator 1
	mov	x0, x19	//, Node
	bl	DevicePathSubType	//
.LVL27:
	uxtb	w0, w0	// D.9513,
	cmp	w0, 255	// D.9513,
	cset	w0, eq	// iftmp.1,
.L29:
	.loc 1 256 0 is_stmt 1 discriminator 4
	ldp	x19, x30, [sp]	//,,
.LVL28:
	add	sp, sp, 16	//,,
	.cfi_restore 30
	.cfi_restore 19
	.cfi_def_cfa_offset 0
	ret
	.cfi_endproc
.LFE6:
	.size	IsDevicePathEnd, .-IsDevicePathEnd
	.align	3
.LC12:
	.xword	.LC0
	.align	3
.LC13:
	.xword	.LC2
	.section	.text.IsDevicePathValid,"ax",%progbits
	.align	2
	.global	IsDevicePathValid
	.type	IsDevicePathValid, %function
IsDevicePathValid:
.LFB0:
	.loc 1 57 0
	.cfi_startproc
.LVL29:
	sub	sp, sp, #48	//,,
	.cfi_def_cfa_offset 48
	stp	x19, x20, [sp]	//,,
	stp	x21, x22, [sp,16]	//,,
	stp	x23, x30, [sp,32]	//,,
	.cfi_offset 19, -48
	.cfi_offset 20, -40
	.cfi_offset 21, -32
	.cfi_offset 22, -24
	.cfi_offset 23, -16
	.cfi_offset 30, -8
	.loc 1 57 0
	mov	x19, x0	// DevicePath, DevicePath
	mov	x21, x1	// MaxSize, MaxSize
	.loc 1 62 0
	bl	DebugAssertEnabled	//
.LVL30:
	uxtb	w0, w0	// D.9520,
	cbz	w0, .L36	// D.9520,
	.loc 1 62 0 is_stmt 0 discriminator 1
	cbnz	x19, .L36	// DevicePath,
	ldr	x0, .LC14	//,
	ldr	x2, .LC16	//,
	mov	x1, 62	//,
	bl	DebugAssert	//
.LVL31:
.L36:
	.loc 1 64 0 is_stmt 1
	cbz	x21, .L43	// MaxSize,
	.loc 1 71 0
	cmp	x21, 3	// MaxSize,
	bhi	.L37	//,
.LVL32:
.L40:
	.loc 1 72 0
	mov	w0, 0	// D.9519,
	b	.L38	//
.LVL33:
.L43:
	.loc 1 65 0
	mov	x21, -1	// MaxSize,
.LVL34:
.L37:
	.loc 1 65 0 is_stmt 0 discriminator 1
	mov	x20, 0	// Size,
	.loc 1 93 0 is_stmt 1 discriminator 1
	ldr	x23, .LC17	// tmp100,
	.loc 1 65 0 discriminator 1
	mov	x22, x20	// Count, Size
	.loc 1 89 0 discriminator 1
	sub	x21, x21, #4	// D.9521, MaxSize,
.LVL35:
.L39:
	.loc 1 75 0 discriminator 1
	mov	x0, x19	//, DevicePath
	bl	IsDevicePathEnd	//
.LVL36:
	uxtb	w0, w0	// D.9520,
	cbnz	w0, .L50	// D.9520,
	.loc 1 76 0
	mov	x0, x19	//, DevicePath
	bl	DevicePathNodeLength	//
.LVL37:
	.loc 1 77 0
	cmp	x0, 3	// NodeLength,
	bls	.L40	//,
	.loc 1 81 0
	mvn	x1, x20	// D.9521, Size
	cmp	x0, x1	// NodeLength, D.9521
	bhi	.L40	//,
	.loc 1 84 0
	add	x20, x20, x0	// Size, Size, NodeLength
.LVL38:
	.loc 1 89 0
	cmp	x20, x21	// Size, D.9521
	bhi	.L40	//,
	.loc 1 93 0
	ldr	w0, [x23]	//, _gPcd_FixedAtBuild_PcdMaximumDevicePathNodeCount
.LVL39:
	cbz	w0, .L41	// _gPcd_FixedAtBuild_PcdMaximumDevicePathNodeCount.0,
	.loc 1 94 0
	add	x22, x22, 1	// Count, Count,
.LVL40:
	.loc 1 95 0
	cmp	x22, x0, uxtw	// Count, _gPcd_FixedAtBuild_PcdMaximumDevicePathNodeCount.0
	bcs	.L40	//,
.L41:
	.loc 1 75 0
	mov	x0, x19	//, DevicePath
	bl	NextDevicePathNode	//
.LVL41:
	mov	x19, x0	// DevicePath,
.LVL42:
	b	.L39	//
.LVL43:
.L50:
	.loc 1 104 0
	mov	x0, x19	//, DevicePath
	bl	DevicePathNodeLength	//
.LVL44:
	cmp	x0, 4	//,
	cset	w0, eq	// D.9519,
.LVL45:
.L38:
	.loc 1 105 0
	ldp	x19, x20, [sp]	//,,
.LVL46:
	ldp	x21, x22, [sp,16]	//,,
	ldp	x23, x30, [sp,32]	//,,
	add	sp, sp, 48	//,,
	.cfi_restore 30
	.cfi_restore 23
	.cfi_restore 22
	.cfi_restore 21
	.cfi_restore 20
	.cfi_restore 19
	.cfi_def_cfa_offset 0
	ret
	.cfi_endproc
.LFE0:
	.size	IsDevicePathValid, .-IsDevicePathValid
	.align	3
.LC14:
	.xword	.LC0
	.align	3
.LC16:
	.xword	.LC15
	.align	3
.LC17:
	.xword	_gPcd_FixedAtBuild_PcdMaximumDevicePathNodeCount
	.section	.text.IsDevicePathEndInstance,"ax",%progbits
	.align	2
	.global	IsDevicePathEndInstance
	.type	IsDevicePathEndInstance, %function
IsDevicePathEndInstance:
.LFB7:
	.loc 1 280 0
	.cfi_startproc
.LVL47:
	sub	sp, sp, #16	//,,
	.cfi_def_cfa_offset 16
	stp	x19, x30, [sp]	//,,
	.cfi_offset 19, -16
	.cfi_offset 30, -8
	.loc 1 280 0
	mov	x19, x0	// Node, Node
	.loc 1 281 0
	bl	DebugAssertEnabled	//
.LVL48:
	uxtb	w0, w0	// D.9526,
	cbz	w0, .L52	// D.9526,
	.loc 1 281 0 is_stmt 0 discriminator 1
	cbnz	x19, .L52	// Node,
	ldr	x0, .LC18	//,
	ldr	x2, .LC19	//,
	mov	x1, 281	//,
	bl	DebugAssert	//
.LVL49:
.L52:
	.loc 1 282 0 is_stmt 1
	mov	x0, x19	//, Node
	bl	IsDevicePathEndType	//
.LVL50:
	uxtb	w1, w0	// D.9526,
	mov	w0, 0	// iftmp.2,
	cbz	w1, .L53	// D.9526,
	.loc 1 282 0 is_stmt 0 discriminator 1
	mov	x0, x19	//, Node
	bl	DevicePathSubType	//
.LVL51:
	uxtb	w0, w0	// D.9526,
	cmp	w0, 1	// D.9526,
	cset	w0, eq	// iftmp.2,
.L53:
	.loc 1 283 0 is_stmt 1 discriminator 4
	ldp	x19, x30, [sp]	//,,
.LVL52:
	add	sp, sp, 16	//,,
	.cfi_restore 30
	.cfi_restore 19
	.cfi_def_cfa_offset 0
	ret
	.cfi_endproc
.LFE7:
	.size	IsDevicePathEndInstance, .-IsDevicePathEndInstance
	.align	3
.LC18:
	.xword	.LC0
	.align	3
.LC19:
	.xword	.LC2
	.section	.text.SetDevicePathNodeLength,"ax",%progbits
	.align	2
	.global	SetDevicePathNodeLength
	.type	SetDevicePathNodeLength, %function
SetDevicePathNodeLength:
.LFB8:
	.loc 1 309 0
	.cfi_startproc
.LVL53:
	sub	sp, sp, #32	//,,
	.cfi_def_cfa_offset 32
	stp	x19, x20, [sp]	//,,
	str	x30, [sp,16]	//,
	.cfi_offset 19, -32
	.cfi_offset 20, -24
	.cfi_offset 30, -16
	.loc 1 309 0
	mov	x20, x0	// Node, Node
	mov	x19, x1	// Length, Length
	.loc 1 310 0
	bl	DebugAssertEnabled	//
.LVL54:
	uxtb	w0, w0	// D.9532,
	cbz	w0, .L60	// D.9532,
	.loc 1 310 0 is_stmt 0 discriminator 1
	cbnz	x20, .L60	// Node,
	ldr	x0, .LC20	//,
	ldr	x2, .LC21	//,
	mov	x1, 310	//,
	bl	DebugAssert	//
.LVL55:
.L60:
	.loc 1 311 0 is_stmt 1
	bl	DebugAssertEnabled	//
.LVL56:
	uxtb	w0, w0	// D.9532,
	cbz	w0, .L61	// D.9532,
	.loc 1 311 0 is_stmt 0 discriminator 1
	sub	x1, x19, #4	// D.9533, Length,
	mov	x0, 65531	// tmp87,
	cmp	x1, x0	// D.9533, tmp87
	bls	.L61	//,
	ldr	x0, .LC20	//,
	ldr	x2, .LC23	//,
	mov	x1, 311	//,
	bl	DebugAssert	//
.LVL57:
.L61:
	.loc 1 312 0 is_stmt 1
	add	x0, x20, 2	//, Node,
	mov	w1, w19	//, Length
	.loc 1 313 0
	ldr	x30, [sp,16]	//,
	ldp	x19, x20, [sp]	//,,
.LVL58:
	add	sp, sp, 32	//,,
	.cfi_restore 30
	.cfi_restore 20
	.cfi_restore 19
	.cfi_def_cfa_offset 0
	.loc 1 312 0
	b	WriteUnaligned16	//
.LVL59:
	.cfi_endproc
.LFE8:
	.size	SetDevicePathNodeLength, .-SetDevicePathNodeLength
	.align	3
.LC20:
	.xword	.LC0
	.align	3
.LC21:
	.xword	.LC2
	.align	3
.LC23:
	.xword	.LC22
	.section	.text.SetDevicePathEndNode,"ax",%progbits
	.align	2
	.global	SetDevicePathEndNode
	.type	SetDevicePathEndNode, %function
SetDevicePathEndNode:
.LFB9:
	.loc 1 336 0
	.cfi_startproc
.LVL60:
	sub	sp, sp, #16	//,,
	.cfi_def_cfa_offset 16
	stp	x19, x30, [sp]	//,,
	.cfi_offset 19, -16
	.cfi_offset 30, -8
	.loc 1 336 0
	mov	x19, x0	// Node, Node
	.loc 1 337 0
	bl	DebugAssertEnabled	//
.LVL61:
	uxtb	w0, w0	// D.9540,
	cbz	w0, .L69	// D.9540,
	.loc 1 337 0 is_stmt 0 discriminator 1
	cbnz	x19, .L69	// Node,
	ldr	x0, .LC24	//,
	ldr	x2, .LC25	//,
	mov	x1, 337	//,
	bl	DebugAssert	//
.LVL62:
.L69:
	.loc 1 338 0 is_stmt 1
	mov	x0, x19	//, Node
	ldr	x1, .LC26	//,
	.loc 1 339 0
	ldp	x19, x30, [sp]	//,,
.LVL63:
	.loc 1 338 0
	mov	x2, 4	//,
	.loc 1 339 0
	add	sp, sp, 16	//,,
	.cfi_restore 30
	.cfi_restore 19
	.cfi_def_cfa_offset 0
	.loc 1 338 0
	b	CopyMem	//
.LVL64:
	.cfi_endproc
.LFE9:
	.size	SetDevicePathEndNode, .-SetDevicePathEndNode
	.align	3
.LC24:
	.xword	.LC0
	.align	3
.LC25:
	.xword	.LC2
	.align	3
.LC26:
	.xword	.LANCHOR0
	.section	.text.UefiDevicePathLibGetDevicePathSize,"ax",%progbits
	.align	2
	.global	UefiDevicePathLibGetDevicePathSize
	.type	UefiDevicePathLibGetDevicePathSize, %function
UefiDevicePathLibGetDevicePathSize:
.LFB10:
	.loc 1 359 0
	.cfi_startproc
.LVL65:
	sub	sp, sp, #32	//,,
	.cfi_def_cfa_offset 32
	stp	x19, x20, [sp]	//,,
	str	x30, [sp,16]	//,
	.cfi_offset 19, -32
	.cfi_offset 20, -24
	.cfi_offset 30, -16
	.loc 1 359 0
	mov	x20, x0	// DevicePath, DevicePath
	.loc 1 362 0
	cbnz	x0, .L74	// DevicePath,
.LVL66:
.L76:
	.loc 1 363 0
	mov	x0, 0	// D.9544,
	b	.L75	//
.LVL67:
.L74:
	.loc 1 366 0
	mov	x1, 0	//,
	bl	IsDevicePathValid	//
.LVL68:
	uxtb	w0, w0	// D.9545,
	mov	x19, x20	// DevicePath, DevicePath
	cbz	w0, .L76	// D.9545,
.LVL69:
.L77:
	.loc 1 374 0 discriminator 1
	mov	x0, x19	//, DevicePath
	bl	IsDevicePathEnd	//
.LVL70:
	uxtb	w0, w0	// D.9545,
	cbnz	w0, .L82	// D.9545,
	.loc 1 375 0
	mov	x0, x19	//, DevicePath
	bl	NextDevicePathNode	//
.LVL71:
	mov	x19, x0	// DevicePath,
.LVL72:
	b	.L77	//
.LVL73:
.L82:
	.loc 1 381 0
	mov	x0, x19	//, DevicePath
	bl	DevicePathNodeLength	//
.LVL74:
	sub	x0, x0, x20	// D.9546,, DevicePath
	add	x0, x19, x0	// D.9544, DevicePath, D.9546
.LVL75:
.L75:
	.loc 1 382 0
	ldp	x19, x20, [sp]	//,,
	ldr	x30, [sp,16]	//,
	add	sp, sp, 32	//,,
	.cfi_restore 30
	.cfi_restore 20
	.cfi_restore 19
	.cfi_def_cfa_offset 0
	ret
	.cfi_endproc
.LFE10:
	.size	UefiDevicePathLibGetDevicePathSize, .-UefiDevicePathLibGetDevicePathSize
	.section	.text.UefiDevicePathLibDuplicateDevicePath,"ax",%progbits
	.align	2
	.global	UefiDevicePathLibDuplicateDevicePath
	.type	UefiDevicePathLibDuplicateDevicePath, %function
UefiDevicePathLibDuplicateDevicePath:
.LFB11:
	.loc 1 405 0
	.cfi_startproc
.LVL76:
	sub	sp, sp, #32	//,,
	.cfi_def_cfa_offset 32
	str	x30, [sp]	//,
	.cfi_offset 30, -32
	.loc 1 411 0
	str	x0, [sp,24]	// tmp1,
	bl	GetDevicePathSize	//
.LVL77:
	.loc 1 412 0
	ldr	x1, [sp,24]	//,
	cbz	x0, .L84	//,
	.loc 1 421 0
	ldr	x30, [sp]	//,
	add	sp, sp, 32	//,,
	.cfi_remember_state
	.cfi_restore 30
	.cfi_def_cfa_offset 0
	.loc 1 420 0
	b	AllocateCopyPool	//
.LVL78:
.L84:
	.cfi_restore_state
	.loc 1 421 0
	ldr	x30, [sp]	//,
	add	sp, sp, 32	//,,
	.cfi_restore 30
	.cfi_def_cfa_offset 0
	ret
	.cfi_endproc
.LFE11:
	.size	UefiDevicePathLibDuplicateDevicePath, .-UefiDevicePathLibDuplicateDevicePath
	.section	.text.UefiDevicePathLibAppendDevicePath,"ax",%progbits
	.align	2
	.global	UefiDevicePathLibAppendDevicePath
	.type	UefiDevicePathLibAppendDevicePath, %function
UefiDevicePathLibAppendDevicePath:
.LFB12:
	.loc 1 453 0
	.cfi_startproc
.LVL79:
	sub	sp, sp, #48	//,,
	.cfi_def_cfa_offset 48
	stp	x19, x20, [sp]	//,,
	stp	x21, x22, [sp,16]	//,,
	str	x30, [sp,32]	//,
	.cfi_offset 19, -48
	.cfi_offset 20, -40
	.cfi_offset 21, -32
	.cfi_offset 22, -24
	.cfi_offset 30, -16
	.loc 1 453 0
	mov	x21, x0	// FirstDevicePath, FirstDevicePath
	mov	x19, x1	// SecondDevicePath, SecondDevicePath
	.loc 1 463 0
	cbnz	x0, .L86	// FirstDevicePath,
	.loc 1 464 0
	ldr	x0, .LC27	// tmp96,
.LVL80:
	cmp	x1, xzr	// SecondDevicePath,
	csel	x0, x1, x0, ne	//, SecondDevicePath, tmp96,
	b	.L99	//
.LVL81:
.L86:
	.loc 1 467 0
	cbnz	x1, .L88	// SecondDevicePath,
.LVL82:
.L99:
	.loc 1 496 0
	ldp	x19, x20, [sp]	//,,
	ldp	x21, x22, [sp,16]	//,,
.LVL83:
	ldr	x30, [sp,32]	//,
	add	sp, sp, 48	//,,
	.cfi_remember_state
	.cfi_restore 30
	.cfi_restore 22
	.cfi_restore 21
	.cfi_restore 20
	.cfi_restore 19
	.cfi_def_cfa_offset 0
	.loc 1 468 0
	b	DuplicateDevicePath	//
.LVL84:
.L88:
	.cfi_restore_state
	.loc 1 471 0
	mov	x1, 0	//,
.LVL85:
	bl	IsDevicePathValid	//
.LVL86:
	uxtb	w0, w0	// D.9553,
	cbnz	w0, .L89	// D.9553,
.L91:
	.loc 1 472 0
	mov	x0, 0	// D.9552,
	b	.L90	//
.L89:
	.loc 1 471 0 discriminator 1
	mov	x0, x19	//, SecondDevicePath
	mov	x1, 0	//,
	bl	IsDevicePathValid	//
.LVL87:
	uxtb	w0, w0	// D.9553,
	cbz	w0, .L91	// D.9553,
	.loc 1 479 0
	mov	x0, x21	//, FirstDevicePath
	bl	GetDevicePathSize	//
.LVL88:
	mov	x20, x0	// Size1,
.LVL89:
	.loc 1 480 0
	mov	x0, x19	//, SecondDevicePath
.LVL90:
	bl	GetDevicePathSize	//
.LVL91:
	mov	x22, x0	// Size2,
.LVL92:
	.loc 1 481 0
	add	x0, x20, x0	// D.9554, Size1, Size2
.LVL93:
	.loc 1 483 0
	sub	x0, x0, #4	//, D.9554,
.LVL94:
	bl	AllocatePool	//
.LVL95:
	.loc 1 485 0
	cbz	x0, .L91	//,
	.loc 1 486 0
	mov	x1, x21	//, FirstDevicePath
	mov	x2, x20	//, Size1
	bl	CopyMem	//
.LVL96:
	mov	x21, x0	// NewDevicePath,
.LVL97:
	.loc 1 490 0
	sub	x0, x20, #4	// D.9555, Size1,
.LVL98:
	.loc 1 492 0
	add	x0, x21, x0	//, NewDevicePath, D.9555
	mov	x1, x19	//, SecondDevicePath
	mov	x2, x22	//, Size2
	bl	CopyMem	//
.LVL99:
	.loc 1 486 0
	mov	x0, x21	// D.9552, NewDevicePath
.LVL100:
.L90:
	.loc 1 496 0
	ldp	x19, x20, [sp]	//,,
.LVL101:
	ldp	x21, x22, [sp,16]	//,,
	ldr	x30, [sp,32]	//,
	add	sp, sp, 48	//,,
	.cfi_restore 30
	.cfi_restore 22
	.cfi_restore 21
	.cfi_restore 20
	.cfi_restore 19
	.cfi_def_cfa_offset 0
	ret
	.cfi_endproc
.LFE12:
	.size	UefiDevicePathLibAppendDevicePath, .-UefiDevicePathLibAppendDevicePath
	.align	3
.LC27:
	.xword	.LANCHOR0
	.section	.text.UefiDevicePathLibAppendDevicePathNode,"ax",%progbits
	.align	2
	.global	UefiDevicePathLibAppendDevicePathNode
	.type	UefiDevicePathLibAppendDevicePathNode, %function
UefiDevicePathLibAppendDevicePathNode:
.LFB13:
	.loc 1 532 0
	.cfi_startproc
.LVL102:
	sub	sp, sp, #48	//,,
	.cfi_def_cfa_offset 48
	stp	x19, x20, [sp]	//,,
	str	x30, [sp,16]	//,
	.cfi_offset 19, -48
	.cfi_offset 20, -40
	.cfi_offset 30, -32
	.loc 1 532 0
	mov	x19, x0	// DevicePath, DevicePath
	.loc 1 538 0
	cbnz	x1, .L101	// DevicePathNode,
	.loc 1 539 0
	cmp	x0, xzr	// DevicePath,
	ldr	x0, .LC28	// tmp87,
.LVL103:
	.loc 1 564 0
	ldr	x30, [sp,16]	//,
	.loc 1 539 0
	csel	x0, x19, x0, ne	//, DevicePath, tmp87,
	.loc 1 564 0
	ldp	x19, x20, [sp]	//,,
.LVL104:
	add	sp, sp, 48	//,,
	.cfi_remember_state
	.cfi_restore 30
	.cfi_restore 20
	.cfi_restore 19
	.cfi_def_cfa_offset 0
	.loc 1 539 0
	b	DuplicateDevicePath	//
.LVL105:
.L101:
	.cfi_restore_state
	.loc 1 544 0
	mov	x0, x1	//, DevicePathNode
.LVL106:
	str	x1, [sp,32]	//,
	bl	DevicePathNodeLength	//
.LVL107:
	mov	x2, x0	// NodeLength,
.LVL108:
	.loc 1 546 0
	add	x0, x0, 4	//, NodeLength,
.LVL109:
	str	x2, [sp,40]	//,
	bl	AllocatePool	//
.LVL110:
	.loc 1 547 0
	ldr	x1, [sp,32]	//,
	ldr	x2, [sp,40]	//,
	cbz	x0, .L105	// TempDevicePath,
	.loc 1 550 0
	bl	CopyMem	//
.LVL111:
	mov	x20, x0	// TempDevicePath,
.LVL112:
	.loc 1 554 0
	bl	NextDevicePathNode	//
.LVL113:
	.loc 1 555 0
	bl	SetDevicePathEndNode	//
.LVL114:
	.loc 1 559 0
	mov	x0, x19	//, DevicePath
	mov	x1, x20	//, TempDevicePath
	bl	AppendDevicePath	//
.LVL115:
	mov	x19, x0	// NewDevicePath,
.LVL116:
	.loc 1 561 0
	mov	x0, x20	//, TempDevicePath
.LVL117:
	bl	FreePool	//
.LVL118:
	.loc 1 563 0
	mov	x0, x19	// D.9559, NewDevicePath
	b	.L103	//
.LVL119:
.L105:
.L103:
	.loc 1 564 0
	ldp	x19, x20, [sp]	//,,
	ldr	x30, [sp,16]	//,
	add	sp, sp, 48	//,,
	.cfi_restore 30
	.cfi_restore 20
	.cfi_restore 19
	.cfi_def_cfa_offset 0
	ret
	.cfi_endproc
.LFE13:
	.size	UefiDevicePathLibAppendDevicePathNode, .-UefiDevicePathLibAppendDevicePathNode
	.align	3
.LC28:
	.xword	.LANCHOR0
	.section	.text.UefiDevicePathLibAppendDevicePathInstance,"ax",%progbits
	.align	2
	.global	UefiDevicePathLibAppendDevicePathInstance
	.type	UefiDevicePathLibAppendDevicePathInstance, %function
UefiDevicePathLibAppendDevicePathInstance:
.LFB14:
	.loc 1 595 0
	.cfi_startproc
.LVL120:
	sub	sp, sp, #48	//,,
	.cfi_def_cfa_offset 48
	stp	x19, x20, [sp]	//,,
	stp	x21, x22, [sp,16]	//,,
	stp	x23, x30, [sp,32]	//,,
	.cfi_offset 19, -48
	.cfi_offset 20, -40
	.cfi_offset 21, -32
	.cfi_offset 22, -24
	.cfi_offset 23, -16
	.cfi_offset 30, -8
	.loc 1 595 0
	mov	x20, x0	// DevicePath, DevicePath
	mov	x19, x1	// DevicePathInstance, DevicePathInstance
	.loc 1 601 0
	cbnz	x0, .L107	// DevicePath,
	.loc 1 631 0
	ldp	x19, x20, [sp]	//,,
	ldp	x21, x22, [sp,16]	//,,
	ldp	x23, x30, [sp,32]	//,,
	.loc 1 602 0
	mov	x0, x1	//, DevicePathInstance
.LVL121:
	.loc 1 631 0
	add	sp, sp, 48	//,,
	.cfi_remember_state
	.cfi_restore 30
	.cfi_restore 23
	.cfi_restore 22
	.cfi_restore 21
	.cfi_restore 20
	.cfi_restore 19
	.cfi_def_cfa_offset 0
	.loc 1 602 0
	b	DuplicateDevicePath	//
.LVL122:
.L107:
	.cfi_restore_state
	.loc 1 605 0
	cbnz	x1, .L108	// DevicePathInstance,
.LVL123:
.L110:
	.loc 1 606 0
	mov	x0, 0	// D.9564,
	b	.L109	//
.LVL124:
.L108:
	.loc 1 609 0
	mov	x1, 0	//,
.LVL125:
	bl	IsDevicePathValid	//
.LVL126:
	uxtb	w0, w0	// D.9565,
	cbz	w0, .L110	// D.9565,
	.loc 1 609 0 is_stmt 0 discriminator 1
	mov	x0, x19	//, DevicePathInstance
	mov	x1, 0	//,
	bl	IsDevicePathValid	//
.LVL127:
	uxtb	w0, w0	// D.9565,
	cbz	w0, .L110	// D.9565,
	.loc 1 613 0 is_stmt 1
	mov	x0, x20	//, DevicePath
	bl	GetDevicePathSize	//
.LVL128:
	mov	x23, x0	// SrcSize,
.LVL129:
	.loc 1 614 0
	mov	x0, x19	//, DevicePathInstance
.LVL130:
	bl	GetDevicePathSize	//
.LVL131:
	mov	x22, x0	// InstanceSize,
.LVL132:
	.loc 1 616 0
	add	x0, x0, x23	//, InstanceSize, SrcSize
.LVL133:
	bl	AllocatePool	//
.LVL134:
	mov	x21, x0	// NewDevicePath,
.LVL135:
	.loc 1 617 0
	cbz	x0, .L110	// NewDevicePath,
	.loc 1 619 0
	mov	x1, x20	//, DevicePath
	mov	x2, x23	//, SrcSize
	bl	CopyMem	//
.LVL136:
.L122:
	.loc 1 622 0
	mov	x20, x0	// TempDevicePath,
.LVL137:
	.loc 1 621 0
	bl	IsDevicePathEnd	//
.LVL138:
	uxtb	w0, w0	// D.9565,
	cbnz	w0, .L123	// D.9565,
	.loc 1 622 0
	mov	x0, x20	//, TempDevicePath
	bl	NextDevicePathNode	//
.LVL139:
	b	.L122	//
.L123:
	.loc 1 625 0
	mov	w0, 1	// tmp90,
	strb	w0, [x20,1]	// tmp90, TempDevicePath_32->SubType
	.loc 1 626 0
	mov	x0, x20	//, TempDevicePath
	bl	NextDevicePathNode	//
.LVL140:
	.loc 1 627 0
	mov	x1, x19	//, DevicePathInstance
	mov	x2, x22	//, InstanceSize
	bl	CopyMem	//
.LVL141:
	mov	x0, x21	// D.9564, NewDevicePath
.LVL142:
.L109:
	.loc 1 631 0
	ldp	x19, x20, [sp]	//,,
.LVL143:
	ldp	x21, x22, [sp,16]	//,,
	ldp	x23, x30, [sp,32]	//,,
	add	sp, sp, 48	//,,
	.cfi_restore 30
	.cfi_restore 23
	.cfi_restore 22
	.cfi_restore 21
	.cfi_restore 20
	.cfi_restore 19
	.cfi_def_cfa_offset 0
	ret
	.cfi_endproc
.LFE14:
	.size	UefiDevicePathLibAppendDevicePathInstance, .-UefiDevicePathLibAppendDevicePathInstance
	.section	.text.UefiDevicePathLibGetNextDevicePathInstance,"ax",%progbits
	.align	2
	.global	UefiDevicePathLibGetNextDevicePathInstance
	.type	UefiDevicePathLibGetNextDevicePathInstance, %function
UefiDevicePathLibGetNextDevicePathInstance:
.LFB15:
	.loc 1 667 0
	.cfi_startproc
.LVL144:
	sub	sp, sp, #48	//,,
	.cfi_def_cfa_offset 48
	stp	x19, x20, [sp]	//,,
	stp	x21, x22, [sp,16]	//,,
	str	x30, [sp,32]	//,
	.cfi_offset 19, -48
	.cfi_offset 20, -40
	.cfi_offset 21, -32
	.cfi_offset 22, -24
	.cfi_offset 30, -16
	.loc 1 667 0
	mov	x20, x0	// DevicePath, DevicePath
	mov	x21, x1	// Size, Size
	.loc 1 672 0
	bl	DebugAssertEnabled	//
.LVL145:
	uxtb	w0, w0	// D.9570,
	cbz	w0, .L125	// D.9570,
	.loc 1 672 0 is_stmt 0 discriminator 1
	cbnz	x21, .L125	// Size,
	ldr	x0, .LC29	//,
	ldr	x2, .LC31	//,
	mov	x1, 672	//,
	bl	DebugAssert	//
.LVL146:
.L125:
	.loc 1 674 0 is_stmt 1
	cbz	x20, .L126	// DevicePath,
	.loc 1 674 0 is_stmt 0 discriminator 1
	ldr	x0, [x20]	// D.9569, *DevicePath_12(D)
	cbnz	x0, .L127	// D.9569,
.L126:
	.loc 1 675 0 is_stmt 1
	str	xzr, [x21]	//, *Size_10(D)
	b	.L132	//
.L127:
	.loc 1 679 0
	mov	x1, 0	//,
	bl	IsDevicePathValid	//
.LVL147:
	uxtb	w0, w0	// D.9570,
	cbz	w0, .L132	// D.9570,
	.loc 1 686 0
	ldr	x19, [x20]	// DevPath, *DevicePath_12(D)
.LVL148:
.L129:
	.loc 1 687 0 discriminator 1
	mov	x0, x19	//, DevPath
	bl	IsDevicePathEndType	//
.LVL149:
	uxtb	w0, w0	// D.9570,
	cbnz	w0, .L140	// D.9570,
	.loc 1 688 0
	mov	x0, x19	//, DevPath
	bl	NextDevicePathNode	//
.LVL150:
	mov	x19, x0	// DevPath,
.LVL151:
	b	.L129	//
.LVL152:
.L140:
	.loc 1 694 0
	ldr	x0, [x20]	// *DevicePath_12(D), *DevicePath_12(D)
	sub	x0, x19, x0	// D.9571, DevPath, *DevicePath_12(D)
	add	x0, x0, 4	// D.9571, D.9571,
	str	x0, [x21]	// D.9571, *Size_10(D)
	.loc 1 700 0
	mov	w0, -1	// tmp101,
	.loc 1 699 0
	ldrb	w22, [x19,1]	// Temp, DevPath_5->SubType
.LVL153:
	.loc 1 700 0
	strb	w0, [x19,1]	// tmp101, DevPath_5->SubType
.LVL154:
	.loc 1 701 0
	ldr	x0, [x20]	//, *DevicePath_12(D)
	bl	DuplicateDevicePath	//
.LVL155:
	mov	x21, x0	// ReturnValue,
.LVL156:
	.loc 1 702 0
	strb	w22, [x19,1]	// Temp, DevPath_5->SubType
	.loc 1 708 0
	mov	x0, x19	//, DevPath
.LVL157:
	bl	DevicePathSubType	//
.LVL158:
	uxtb	w0, w0	// D.9570,
	cmp	w0, 255	// D.9570,
	bne	.L131	//,
	.loc 1 709 0
	str	xzr, [x20]	//, *DevicePath_12(D)
	b	.L139	//
.L131:
	.loc 1 711 0
	mov	x0, x19	//, DevPath
	bl	NextDevicePathNode	//
.LVL159:
	str	x0, [x20]	//, *DevicePath_12(D)
.L139:
	.loc 1 714 0
	mov	x0, x21	// D.9569, ReturnValue
	b	.L128	//
.LVL160:
.L132:
	.loc 1 680 0
	mov	x0, 0	// D.9569,
.LVL161:
.L128:
	.loc 1 715 0
	ldp	x19, x20, [sp]	//,,
.LVL162:
	ldp	x21, x22, [sp,16]	//,,
	ldr	x30, [sp,32]	//,
	add	sp, sp, 48	//,,
	.cfi_restore 30
	.cfi_restore 22
	.cfi_restore 21
	.cfi_restore 20
	.cfi_restore 19
	.cfi_def_cfa_offset 0
	ret
	.cfi_endproc
.LFE15:
	.size	UefiDevicePathLibGetNextDevicePathInstance, .-UefiDevicePathLibGetNextDevicePathInstance
	.align	3
.LC29:
	.xword	.LC0
	.align	3
.LC31:
	.xword	.LC30
	.section	.text.UefiDevicePathLibCreateDeviceNode,"ax",%progbits
	.align	2
	.global	UefiDevicePathLibCreateDeviceNode
	.type	UefiDevicePathLibCreateDeviceNode, %function
UefiDevicePathLibCreateDeviceNode:
.LFB16:
	.loc 1 743 0
	.cfi_startproc
.LVL163:
	sub	sp, sp, #48	//,,
	.cfi_def_cfa_offset 48
	uxth	w2, w2	// NodeLength, NodeLength
	stp	x21, x22, [sp,16]	//,,
	stp	x19, x20, [sp]	//,,
	str	x30, [sp,32]	//,
	.cfi_offset 21, -32
	.cfi_offset 22, -24
	.cfi_offset 19, -48
	.cfi_offset 20, -40
	.cfi_offset 30, -16
	.loc 1 746 0
	cmp	w2, 3	// NodeLength,
	.loc 1 743 0
	uxtb	w21, w0	// NodeType, NodeType
	uxtb	w22, w1	// NodeSubType, NodeSubType
	.loc 1 746 0
	bls	.L143	//,
	.loc 1 753 0
	uxth	x20, w2	// D.9576, NodeLength
	mov	x0, x20	//, D.9576
.LVL164:
	bl	AllocateZeroPool	//
.LVL165:
	mov	x19, x0	// DevicePath,
.LVL166:
	.loc 1 754 0
	cbz	x0, .L144	// DevicePath,
	.loc 1 755 0
	strb	w21, [x0]	// NodeType, DevicePath_8->Type
	.loc 1 756 0
	strb	w22, [x0,1]	// NodeSubType, DevicePath_8->SubType
	.loc 1 757 0
	mov	x1, x20	//, D.9576
	bl	SetDevicePathNodeLength	//
.LVL167:
	b	.L144	//
.LVL168:
.L143:
	.loc 1 750 0
	mov	x0, 0	// D.9575,
.LVL169:
	b	.L142	//
.LVL170:
.L144:
	mov	x0, x19	// D.9575, DevicePath
.LVL171:
.L142:
	.loc 1 761 0
	ldp	x19, x20, [sp]	//,,
	ldp	x21, x22, [sp,16]	//,,
.LVL172:
	ldr	x30, [sp,32]	//,
	add	sp, sp, 48	//,,
	.cfi_restore 30
	.cfi_restore 22
	.cfi_restore 21
	.cfi_restore 20
	.cfi_restore 19
	.cfi_def_cfa_offset 0
	ret
	.cfi_endproc
.LFE16:
	.size	UefiDevicePathLibCreateDeviceNode, .-UefiDevicePathLibCreateDeviceNode
	.section	.text.UefiDevicePathLibIsDevicePathMultiInstance,"ax",%progbits
	.align	2
	.global	UefiDevicePathLibIsDevicePathMultiInstance
	.type	UefiDevicePathLibIsDevicePathMultiInstance, %function
UefiDevicePathLibIsDevicePathMultiInstance:
.LFB17:
	.loc 1 783 0
	.cfi_startproc
.LVL173:
	sub	sp, sp, #16	//,,
	.cfi_def_cfa_offset 16
	stp	x19, x30, [sp]	//,,
	.cfi_offset 19, -16
	.cfi_offset 30, -8
	.loc 1 783 0
	mov	x19, x0	// DevicePath, DevicePath
	.loc 1 786 0
	cbnz	x0, .L146	// DevicePath,
.LVL174:
.L148:
	.loc 1 787 0
	mov	w0, 0	// D.9579,
	b	.L147	//
.LVL175:
.L146:
	.loc 1 790 0
	mov	x1, 0	//,
	bl	IsDevicePathValid	//
.LVL176:
	uxtb	w0, w0	// D.9580,
	cbz	w0, .L148	// D.9580,
.LVL177:
.L149:
	.loc 1 795 0 discriminator 1
	mov	x0, x19	//, DevicePath
	bl	IsDevicePathEnd	//
.LVL178:
	uxtb	w0, w0	// D.9580,
	cbnz	w0, .L148	// D.9580,
	.loc 1 796 0
	mov	x0, x19	//, DevicePath
	bl	IsDevicePathEndInstance	//
.LVL179:
	uxtb	w0, w0	// D.9580,
	cbnz	w0, .L151	// D.9580,
	.loc 1 800 0
	mov	x0, x19	//, DevicePath
	bl	NextDevicePathNode	//
.LVL180:
	mov	x19, x0	// DevicePath,
.LVL181:
	b	.L149	//
.LVL182:
.L151:
	.loc 1 797 0
	mov	w0, 1	// D.9579,
.LVL183:
.L147:
	.loc 1 804 0
	ldp	x19, x30, [sp]	//,,
	add	sp, sp, 16	//,,
	.cfi_restore 30
	.cfi_restore 19
	.cfi_def_cfa_offset 0
	ret
	.cfi_endproc
.LFE17:
	.size	UefiDevicePathLibIsDevicePathMultiInstance, .-UefiDevicePathLibIsDevicePathMultiInstance
	.section	.text.DevicePathFromHandle,"ax",%progbits
	.align	2
	.global	DevicePathFromHandle
	.type	DevicePathFromHandle, %function
DevicePathFromHandle:
.LFB18:
	.loc 1 825 0
	.cfi_startproc
.LVL184:
	sub	sp, sp, #32	//,,
	.cfi_def_cfa_offset 32
	.loc 1 829 0
	ldr	x1, .LC32	// tmp81,
	.loc 1 825 0
	str	x30, [sp]	//,
	.cfi_offset 30, -32
	.loc 1 829 0
	ldr	x1, [x1]	// gBS, gBS
	add	x2, sp, 24	//,,
	ldr	x3, [x1,152]	// gBS.8_3->HandleProtocol, gBS.8_3->HandleProtocol
	ldr	x1, .LC33	//,
	blr	x3	// gBS.8_3->HandleProtocol
.LVL185:
	.loc 1 834 0
	tbz	x0, #63, .L156	//,
	.loc 1 835 0
	str	xzr, [sp,24]	//, DevicePath
.L156:
	.loc 1 838 0
	ldr	x0, [sp,24]	//, DevicePath
.LVL186:
	ldr	x30, [sp]	//,
	add	sp, sp, 32	//,,
	.cfi_restore 30
	.cfi_def_cfa_offset 0
	ret
	.cfi_endproc
.LFE18:
	.size	DevicePathFromHandle, .-DevicePathFromHandle
	.align	3
.LC32:
	.xword	gBS
	.align	3
.LC33:
	.xword	gEfiDevicePathProtocolGuid
	.section	.text.FileDevicePath,"ax",%progbits
	.align	2
	.global	FileDevicePath
	.type	FileDevicePath, %function
FileDevicePath:
.LFB19:
	.loc 1 867 0
	.cfi_startproc
.LVL187:
	sub	sp, sp, #48	//,,
	.cfi_def_cfa_offset 48
	stp	x19, x20, [sp]	//,,
	.cfi_offset 19, -48
	.cfi_offset 20, -40
	mov	x20, x0	// Device, Device
	.loc 1 875 0
	mov	x0, x1	//, FileName
.LVL188:
	.loc 1 867 0
	stp	x21, x30, [sp,16]	//,,
	.cfi_offset 21, -32
	.cfi_offset 30, -24
	.loc 1 875 0
	str	x1, [sp,40]	//,
	bl	StrSize	//
.LVL189:
	mov	x21, x0	// Size,
.LVL190:
	.loc 1 876 0
	add	x0, x0, 8	//, Size,
.LVL191:
	bl	AllocatePool	//
.LVL192:
	mov	x19, x0	// FilePath,
.LVL193:
	.loc 1 877 0
	ldr	x1, [sp,40]	//,
	cbz	x0, .L160	// FilePath,
.LVL194:
	.loc 1 879 0
	mov	w0, 4	// tmp86,
.LVL195:
	.loc 1 881 0
	mov	x2, x21	//, Size
	.loc 1 879 0
	strb	w0, [x19]	// tmp86, FilePath_11->Header.Type
	.loc 1 880 0
	strb	w0, [x19,1]	// tmp86, FilePath_11->Header.SubType
	.loc 1 881 0
	add	x0, x19, 4	//, FilePath,
	bl	CopyMem	//
.LVL196:
	.loc 1 882 0
	add	x1, x21, 4	//, Size,
	mov	x0, x19	//, FilePath
	bl	SetDevicePathNodeLength	//
.LVL197:
	.loc 1 883 0
	mov	x0, x19	//, FilePath
	bl	NextDevicePathNode	//
.LVL198:
	bl	SetDevicePathEndNode	//
.LVL199:
	.loc 1 886 0
	mov	x0, x20	//, Device
	.loc 1 885 0
	cbz	x20, .L159	// Device,
	.loc 1 886 0
	bl	DevicePathFromHandle	//
.LVL200:
.L159:
	.loc 1 889 0
	mov	x1, x19	//, FilePath
	bl	AppendDevicePath	//
.LVL201:
	mov	x20, x0	// DevicePath,
.LVL202:
	.loc 1 890 0
	mov	x0, x19	//, FilePath
.LVL203:
	bl	FreePool	//
.LVL204:
	b	.L158	//
.LVL205:
.L160:
	.loc 1 873 0
	mov	x20, x0	// DevicePath, FilePath
.LVL206:
.L158:
	.loc 1 894 0
	mov	x0, x20	//, DevicePath
	ldp	x21, x30, [sp,16]	//,,
.LVL207:
	ldp	x19, x20, [sp]	//,,
.LVL208:
	add	sp, sp, 48	//,,
	.cfi_restore 30
	.cfi_restore 21
	.cfi_restore 20
	.cfi_restore 19
	.cfi_def_cfa_offset 0
	ret
	.cfi_endproc
.LFE19:
	.size	FileDevicePath, .-FileDevicePath
	.global	mUefiDevicePathLibEndDevicePath
	.section	.rodata.mUefiDevicePathLibEndDevicePath,"a",%progbits
	.align	3
.LANCHOR0 = . + 0
	.type	mUefiDevicePathLibEndDevicePath, %object
	.size	mUefiDevicePathLibEndDevicePath, 4
mUefiDevicePathLibEndDevicePath:
// Type:
	.byte	127
// SubType:
	.byte	-1
// Length:
	.byte	4
	.byte	0
	.section	.rodata.str1.1,"aMS",%progbits,1
.LC0:
	.string	"/root/next-loader/src/edk2/UDK2018/MyWorkSpace/MdePkg/Library/UefiDevicePathLib/DevicePathUtilities.c"
.LC2:
	.string	"Node != ((void *) 0)"
.LC15:
	.string	"DevicePath != ((void *) 0)"
.LC22:
	.string	"(Length >= sizeof (EFI_DEVICE_PATH_PROTOCOL)) && (Length < 0x00010000)"
.LC30:
	.string	"Size != ((void *) 0)"
	.text
.Letext0:
	.file 2 "/root/next-loader/src/edk2/UDK2018/MyWorkSpace/MdePkg/Include/AArch64/ProcessorBind.h"
	.file 3 "/root/next-loader/src/edk2/UDK2018/MyWorkSpace/MdePkg/Include/Base.h"
	.file 4 "/root/next-loader/src/edk2/UDK2018/MyWorkSpace/MdePkg/Include/Uefi/UefiBaseType.h"
	.file 5 "/root/next-loader/src/edk2/UDK2018/MyWorkSpace/MdePkg/Include/Uefi/UefiMultiPhase.h"
	.file 6 "/root/next-loader/src/edk2/UDK2018/MyWorkSpace/MdePkg/Include/Protocol/DevicePath.h"
	.file 7 "/root/next-loader/src/edk2/UDK2018/MyWorkSpace/MdePkg/Include/Uefi/UefiSpec.h"
	.file 8 "/root/next-loader/src/edk2/UDK2018/MyWorkSpace/Build/MdeModule/RELEASE_GCC49/AARCH64/MdePkg/Library/UefiDevicePathLib/UefiDevicePathLib/DEBUG/AutoGen.h"
	.file 9 "/root/next-loader/src/edk2/UDK2018/MyWorkSpace/MdePkg/Include/Library/BaseLib.h"
	.file 10 "/root/next-loader/src/edk2/UDK2018/MyWorkSpace/MdePkg/Include/Library/BaseMemoryLib.h"
	.file 11 "/root/next-loader/src/edk2/UDK2018/MyWorkSpace/MdePkg/Include/Library/DevicePathLib.h"
	.file 12 "/root/next-loader/src/edk2/UDK2018/MyWorkSpace/MdePkg/Include/Library/MemoryAllocationLib.h"
	.file 13 "/root/next-loader/src/edk2/UDK2018/MyWorkSpace/MdePkg/Include/Library/DebugLib.h"
	.file 14 "/root/next-loader/src/edk2/UDK2018/MyWorkSpace/MdePkg/Include/Library/UefiBootServicesTableLib.h"
	.section	.note.GNU-stack,"",%progbits
