	.cpu generic+fp+simd
	.file	"BitField.c"
// GNU C (GCC) version 4.8.5 20150623 (Red Hat 4.8.5-16) (aarch64-linux-gnu)
//	compiled by GNU C version 4.8.5 20150623 (Red Hat 4.8.5-11), GMP version 6.0.0, MPFR version 3.1.1, MPC version 1.0.1
// GGC heuristics: --param ggc-min-expand=97 --param ggc-min-heapsize=127009
// options passed:  -fpreprocessed BitField.i -mcmodel=large
// -mlittle-endian
// -auxbase-strip /root/next-loader/src/edk2/UDK2018/MyWorkSpace/Build/MdeModule/RELEASE_GCC49/AARCH64/MdePkg/Library/BaseLib/BaseLib/OUTPUT/./BitField.obj
// -g -g -Os -Wall -Werror -Wno-array-bounds -Wno-address
// -Wno-unused-but-set-variable -fshort-wchar -fno-strict-aliasing
// -fno-short-enums -fverbose-asm -fsigned-char -ffunction-sections
// -fdata-sections -fomit-frame-pointer -fno-builtin
// options enabled:  -faggressive-loop-optimizations
// -fasynchronous-unwind-tables -fauto-inc-dec -fbranch-count-reg
// -fcaller-saves -fcombine-stack-adjustments -fcommon -fcompare-elim
// -fcprop-registers -fcrossjumping -fcse-follow-jumps -fdata-sections
// -fdefer-pop -fdelete-null-pointer-checks -fdevirtualize -fdwarf2-cfi-asm
// -fearly-inlining -feliminate-unused-debug-types
// -fexpensive-optimizations -fforward-propagate -ffunction-cse
// -ffunction-sections -fgcse -fgcse-lm -fgnu-runtime -fgnu-unique
// -fguess-branch-probability -fhoist-adjacent-loads -fident
// -fif-conversion -fif-conversion2 -findirect-inlining -finline
// -finline-atomics -finline-functions -finline-functions-called-once
// -finline-small-functions -fipa-cp -fipa-profile -fipa-pure-const
// -fipa-reference -fipa-sra -fira-hoist-pressure -fira-share-save-slots
// -fira-share-spill-slots -fivopts -fkeep-static-consts
// -fleading-underscore -fmath-errno -fmerge-constants
// -fmerge-debug-strings -fmove-loop-invariants -fomit-frame-pointer
// -foptimize-register-move -foptimize-sibling-calls -fpartial-inlining
// -fpeephole -fpeephole2 -fprefetch-loop-arrays -freg-struct-return
// -fregmove -freorder-blocks -freorder-functions -frerun-cse-after-loop
// -fsched-critical-path-heuristic -fsched-dep-count-heuristic
// -fsched-group-heuristic -fsched-interblock -fsched-last-insn-heuristic
// -fsched-rank-heuristic -fsched-spec -fsched-spec-insn-heuristic
// -fsched-stalled-insns-dep -fschedule-insns2 -fsection-anchors
// -fshow-column -fshrink-wrap -fsigned-zeros -fsplit-ivs-in-unroller
// -fsplit-wide-types -fstrict-overflow -fstrict-volatile-bitfields
// -fsync-libcalls -fthread-jumps -ftoplevel-reorder -ftrapping-math
// -ftree-bit-ccp -ftree-builtin-call-dce -ftree-ccp -ftree-ch
// -ftree-coalesce-vars -ftree-copy-prop -ftree-copyrename -ftree-cselim
// -ftree-dce -ftree-dominator-opts -ftree-dse -ftree-forwprop -ftree-fre
// -ftree-loop-if-convert -ftree-loop-im -ftree-loop-ivcanon
// -ftree-loop-optimize -ftree-parallelize-loops= -ftree-phiprop -ftree-pre
// -ftree-pta -ftree-reassoc -ftree-scev-cprop -ftree-sink
// -ftree-slp-vectorize -ftree-slsr -ftree-sra -ftree-switch-conversion
// -ftree-tail-merge -ftree-ter -ftree-vect-loop-version -ftree-vrp
// -funit-at-a-time -funwind-tables -fvar-tracking
// -fvar-tracking-assignments -fverbose-asm -fzero-initialized-in-bss
// -mglibc -mlittle-endian -momit-leaf-frame-pointer

	.text
.Ltext0:
	.section	.text.InternalBaseLibBitFieldReadUint,"ax",%progbits
	.align	2
	.global	InternalBaseLibBitFieldReadUint
	.type	InternalBaseLibBitFieldReadUint, %function
InternalBaseLibBitFieldReadUint:
.LFB0:
	.file 1 "/root/next-loader/src/edk2/UDK2018/MyWorkSpace/MdePkg/Library/BaseLib/BitField.c"
	.loc 1 36 0
	.cfi_startproc
.LVL0:
	.loc 1 41 0
	mov	x3, -2	// tmp86,
	lsl	x2, x3, x2	// D.3352, tmp86, EndBit
.LVL1:
	bic	x0, x0, x2	// D.3352, Operand, D.3352
.LVL2:
	.loc 1 42 0
	lsr	x0, x0, x1	//, D.3352, StartBit
	ret
	.cfi_endproc
.LFE0:
	.size	InternalBaseLibBitFieldReadUint, .-InternalBaseLibBitFieldReadUint
	.section	.text.InternalBaseLibBitFieldOrUint,"ax",%progbits
	.align	2
	.global	InternalBaseLibBitFieldOrUint
	.type	InternalBaseLibBitFieldOrUint, %function
InternalBaseLibBitFieldOrUint:
.LFB1:
	.loc 1 70 0
	.cfi_startproc
.LVL3:
	sub	sp, sp, #48	//,,
	.cfi_def_cfa_offset 48
	stp	x19, x20, [sp]	//,,
	stp	x21, x22, [sp,16]	//,,
	str	x30, [sp,32]	//,
	.cfi_offset 19, -48
	.cfi_offset 20, -40
	.cfi_offset 21, -32
	.cfi_offset 22, -24
	.cfi_offset 30, -16
	.loc 1 70 0
	mov	x22, x0	// Operand, Operand
	mov	x19, x1	// StartBit, StartBit
	mov	x20, x2	// EndBit, EndBit
	mov	x21, x3	// OrData, OrData
	.loc 1 77 0
	bl	DebugAssertEnabled	//
.LVL4:
	uxtb	w0, w0	// D.3356,
	cbz	w0, .L3	// D.3356,
	.loc 1 77 0 is_stmt 0 discriminator 1
	sub	w1, w20, w19	// D.3357, EndBit, StartBit
	lsr	x1, x21, x1	// D.3359, OrData, D.3357
	and	x0, x1, 1	// D.3359, D.3359,
	cmp	x1, x0	// D.3359, D.3359
	beq	.L3	//,
	ldr	x0, .LC1	//,
	ldr	x2, .LC3	//,
	mov	x1, 77	//,
	bl	DebugAssert	//
.LVL5:
.L3:
	.loc 1 83 0 is_stmt 1
	mov	x0, -2	// tmp100,
	lsl	x19, x21, x19	// D.3359, OrData, StartBit
.LVL6:
	lsl	x20, x0, x20	// D.3359, tmp100, EndBit
.LVL7:
	bic	x0, x19, x20	// D.3359, D.3359, D.3359
	.loc 1 84 0
	orr	x0, x0, x22	//, D.3359, Operand
	ldp	x19, x20, [sp]	//,,
	ldp	x21, x22, [sp,16]	//,,
.LVL8:
	ldr	x30, [sp,32]	//,
	add	sp, sp, 48	//,,
	.cfi_restore 30
	.cfi_restore 22
	.cfi_restore 21
	.cfi_restore 20
	.cfi_restore 19
	.cfi_def_cfa_offset 0
	ret
	.cfi_endproc
.LFE1:
	.size	InternalBaseLibBitFieldOrUint, .-InternalBaseLibBitFieldOrUint
	.align	3
.LC1:
	.xword	.LC0
	.align	3
.LC3:
	.xword	.LC2
	.section	.text.InternalBaseLibBitFieldAndUint,"ax",%progbits
	.align	2
	.global	InternalBaseLibBitFieldAndUint
	.type	InternalBaseLibBitFieldAndUint, %function
InternalBaseLibBitFieldAndUint:
.LFB2:
	.loc 1 112 0
	.cfi_startproc
.LVL9:
	sub	sp, sp, #48	//,,
	.cfi_def_cfa_offset 48
	stp	x19, x20, [sp]	//,,
	stp	x21, x22, [sp,16]	//,,
	str	x30, [sp,32]	//,
	.cfi_offset 19, -48
	.cfi_offset 20, -40
	.cfi_offset 21, -32
	.cfi_offset 22, -24
	.cfi_offset 30, -16
	.loc 1 112 0
	mov	x22, x0	// Operand, Operand
	mov	x19, x1	// StartBit, StartBit
	mov	x20, x2	// EndBit, EndBit
	mov	x21, x3	// AndData, AndData
	.loc 1 119 0
	bl	DebugAssertEnabled	//
.LVL10:
	uxtb	w0, w0	// D.3365,
	cbz	w0, .L9	// D.3365,
	.loc 1 119 0 is_stmt 0 discriminator 1
	sub	w1, w20, w19	// D.3366, EndBit, StartBit
	lsr	x1, x21, x1	// D.3368, AndData, D.3366
	and	x0, x1, 1	// D.3368, D.3368,
	cmp	x1, x0	// D.3368, D.3368
	beq	.L9	//,
	ldr	x0, .LC4	//,
	ldr	x2, .LC6	//,
	mov	x1, 119	//,
	bl	DebugAssert	//
.LVL11:
.L9:
	.loc 1 125 0 is_stmt 1
	mov	x0, -2	// tmp102,
	mvn	x21, x21	// D.3368, AndData
.LVL12:
	lsl	x19, x21, x19	// D.3368, D.3368, StartBit
.LVL13:
	lsl	x20, x0, x20	// D.3368, tmp102, EndBit
.LVL14:
	orn	x0, x20, x19	// D.3368, D.3368, D.3368
	.loc 1 126 0
	and	x0, x0, x22	//, D.3368, Operand
	ldp	x19, x20, [sp]	//,,
	ldp	x21, x22, [sp,16]	//,,
.LVL15:
	ldr	x30, [sp,32]	//,
	add	sp, sp, 48	//,,
	.cfi_restore 30
	.cfi_restore 22
	.cfi_restore 21
	.cfi_restore 20
	.cfi_restore 19
	.cfi_def_cfa_offset 0
	ret
	.cfi_endproc
.LFE2:
	.size	InternalBaseLibBitFieldAndUint, .-InternalBaseLibBitFieldAndUint
	.align	3
.LC4:
	.xword	.LC0
	.align	3
.LC6:
	.xword	.LC5
	.section	.text.BitFieldRead8,"ax",%progbits
	.align	2
	.global	BitFieldRead8
	.type	BitFieldRead8, %function
BitFieldRead8:
.LFB3:
	.loc 1 154 0
	.cfi_startproc
.LVL16:
	sub	sp, sp, #32	//,,
	.cfi_def_cfa_offset 32
	stp	x19, x20, [sp]	//,,
	stp	x21, x30, [sp,16]	//,,
	.cfi_offset 19, -32
	.cfi_offset 20, -24
	.cfi_offset 21, -16
	.cfi_offset 30, -8
	.loc 1 154 0
	mov	x20, x1	// StartBit, StartBit
	uxtb	w21, w0	// Operand, Operand
	mov	x19, x2	// EndBit, EndBit
	.loc 1 155 0
	bl	DebugAssertEnabled	//
.LVL17:
	uxtb	w0, w0	// D.3373,
	cbz	w0, .L14	// D.3373,
	.loc 1 155 0 is_stmt 0 discriminator 1
	cmp	x19, 7	// EndBit,
	bls	.L14	//,
	ldr	x0, .LC7	//,
	ldr	x2, .LC9	//,
	mov	x1, 155	//,
	bl	DebugAssert	//
.LVL18:
.L14:
	.loc 1 156 0 is_stmt 1
	bl	DebugAssertEnabled	//
.LVL19:
	uxtb	w0, w0	// D.3373,
	cbz	w0, .L15	// D.3373,
	.loc 1 156 0 is_stmt 0 discriminator 1
	cmp	x20, x19	// StartBit, EndBit
	bls	.L15	//,
	ldr	x0, .LC7	//,
	ldr	x2, .LC11	//,
	mov	x1, 156	//,
	bl	DebugAssert	//
.LVL20:
.L15:
.LBB8:
.LBB9:
	.loc 1 41 0 is_stmt 1
	mov	x0, -2	// tmp96,
	lsl	x19, x0, x19	// D.3374, tmp96, EndBit
.LVL21:
.LBE9:
.LBE8:
	.loc 1 157 0
	uxtb	x21, w21	// D.3374, Operand
.LVL22:
.LBB11:
.LBB10:
	.loc 1 41 0
	bic	x0, x21, x19	// D.3374, D.3374, D.3374
.LBE10:
.LBE11:
	.loc 1 158 0
	lsr	x0, x0, x20	//, D.3374, StartBit
	ldp	x21, x30, [sp,16]	//,,
	ldp	x19, x20, [sp]	//,,
.LVL23:
	add	sp, sp, 32	//,,
	.cfi_restore 30
	.cfi_restore 21
	.cfi_restore 20
	.cfi_restore 19
	.cfi_def_cfa_offset 0
	ret
	.cfi_endproc
.LFE3:
	.size	BitFieldRead8, .-BitFieldRead8
	.align	3
.LC7:
	.xword	.LC0
	.align	3
.LC9:
	.xword	.LC8
	.align	3
.LC11:
	.xword	.LC10
	.section	.text.BitFieldOr8,"ax",%progbits
	.align	2
	.global	BitFieldOr8
	.type	BitFieldOr8, %function
BitFieldOr8:
.LFB5:
	.loc 1 229 0
	.cfi_startproc
.LVL24:
	sub	sp, sp, #48	//,,
	.cfi_def_cfa_offset 48
	stp	x19, x20, [sp]	//,,
	stp	x21, x22, [sp,16]	//,,
	str	x30, [sp,32]	//,
	.cfi_offset 19, -48
	.cfi_offset 20, -40
	.cfi_offset 21, -32
	.cfi_offset 22, -24
	.cfi_offset 30, -16
	.loc 1 229 0
	uxtb	w22, w0	// Operand, Operand
	mov	x20, x1	// StartBit, StartBit
	mov	x19, x2	// EndBit, EndBit
	uxtb	w21, w3	// OrData, OrData
	.loc 1 230 0
	bl	DebugAssertEnabled	//
.LVL25:
	uxtb	w0, w0	// D.3382,
	cbz	w0, .L23	// D.3382,
	.loc 1 230 0 is_stmt 0 discriminator 1
	cmp	x19, 7	// EndBit,
	bls	.L23	//,
	ldr	x0, .LC12	//,
	ldr	x2, .LC13	//,
	mov	x1, 230	//,
	bl	DebugAssert	//
.LVL26:
.L23:
	.loc 1 231 0 is_stmt 1
	bl	DebugAssertEnabled	//
.LVL27:
	uxtb	w0, w0	// D.3382,
	cbz	w0, .L24	// D.3382,
	.loc 1 231 0 is_stmt 0 discriminator 1
	cmp	x20, x19	// StartBit, EndBit
	bls	.L24	//,
	ldr	x0, .LC12	//,
	ldr	x2, .LC14	//,
	mov	x1, 231	//,
	bl	DebugAssert	//
.LVL28:
.L24:
	.loc 1 232 0 is_stmt 1
	mov	x1, x20	//, StartBit
	mov	x2, x19	//, EndBit
	uxtb	x3, w21	//, OrData
	uxtb	x0, w22	//, Operand
	bl	InternalBaseLibBitFieldOrUint	//
.LVL29:
	.loc 1 233 0
	ldr	x30, [sp,32]	//,
	ldp	x19, x20, [sp]	//,,
.LVL30:
	ldp	x21, x22, [sp,16]	//,,
.LVL31:
	add	sp, sp, 48	//,,
	.cfi_restore 30
	.cfi_restore 22
	.cfi_restore 21
	.cfi_restore 20
	.cfi_restore 19
	.cfi_def_cfa_offset 0
	ret
	.cfi_endproc
.LFE5:
	.size	BitFieldOr8, .-BitFieldOr8
	.align	3
.LC12:
	.xword	.LC0
	.align	3
.LC13:
	.xword	.LC8
	.align	3
.LC14:
	.xword	.LC10
	.section	.text.BitFieldAnd8,"ax",%progbits
	.align	2
	.global	BitFieldAnd8
	.type	BitFieldAnd8, %function
BitFieldAnd8:
.LFB6:
	.loc 1 267 0
	.cfi_startproc
.LVL32:
	sub	sp, sp, #48	//,,
	.cfi_def_cfa_offset 48
	stp	x19, x20, [sp]	//,,
	stp	x21, x22, [sp,16]	//,,
	str	x30, [sp,32]	//,
	.cfi_offset 19, -48
	.cfi_offset 20, -40
	.cfi_offset 21, -32
	.cfi_offset 22, -24
	.cfi_offset 30, -16
	.loc 1 267 0
	uxtb	w22, w0	// Operand, Operand
	mov	x20, x1	// StartBit, StartBit
	mov	x19, x2	// EndBit, EndBit
	uxtb	w21, w3	// AndData, AndData
	.loc 1 268 0
	bl	DebugAssertEnabled	//
.LVL33:
	uxtb	w0, w0	// D.3387,
	cbz	w0, .L32	// D.3387,
	.loc 1 268 0 is_stmt 0 discriminator 1
	cmp	x19, 7	// EndBit,
	bls	.L32	//,
	ldr	x0, .LC15	//,
	ldr	x2, .LC16	//,
	mov	x1, 268	//,
	bl	DebugAssert	//
.LVL34:
.L32:
	.loc 1 269 0 is_stmt 1
	bl	DebugAssertEnabled	//
.LVL35:
	uxtb	w0, w0	// D.3387,
	cbz	w0, .L33	// D.3387,
	.loc 1 269 0 is_stmt 0 discriminator 1
	cmp	x20, x19	// StartBit, EndBit
	bls	.L33	//,
	ldr	x0, .LC15	//,
	ldr	x2, .LC17	//,
	mov	x1, 269	//,
	bl	DebugAssert	//
.LVL36:
.L33:
	.loc 1 270 0 is_stmt 1
	mov	x1, x20	//, StartBit
	mov	x2, x19	//, EndBit
	uxtb	x3, w21	//, AndData
	uxtb	x0, w22	//, Operand
	bl	InternalBaseLibBitFieldAndUint	//
.LVL37:
	.loc 1 271 0
	ldr	x30, [sp,32]	//,
	ldp	x19, x20, [sp]	//,,
.LVL38:
	ldp	x21, x22, [sp,16]	//,,
.LVL39:
	add	sp, sp, 48	//,,
	.cfi_restore 30
	.cfi_restore 22
	.cfi_restore 21
	.cfi_restore 20
	.cfi_restore 19
	.cfi_def_cfa_offset 0
	ret
	.cfi_endproc
.LFE6:
	.size	BitFieldAnd8, .-BitFieldAnd8
	.align	3
.LC15:
	.xword	.LC0
	.align	3
.LC16:
	.xword	.LC8
	.align	3
.LC17:
	.xword	.LC10
	.section	.text.BitFieldAndThenOr8,"ax",%progbits
	.align	2
	.global	BitFieldAndThenOr8
	.type	BitFieldAndThenOr8, %function
BitFieldAndThenOr8:
.LFB7:
	.loc 1 309 0
	.cfi_startproc
.LVL40:
	sub	sp, sp, #48	//,,
	.cfi_def_cfa_offset 48
	stp	x19, x20, [sp]	//,,
	stp	x21, x22, [sp,16]	//,,
	stp	x23, x30, [sp,32]	//,,
	.cfi_offset 19, -48
	.cfi_offset 20, -40
	.cfi_offset 21, -32
	.cfi_offset 22, -24
	.cfi_offset 23, -16
	.cfi_offset 30, -8
	.loc 1 309 0
	mov	x20, x1	// StartBit, StartBit
	uxtb	w23, w0	// Operand, Operand
	mov	x19, x2	// EndBit, EndBit
	uxtb	w22, w3	// AndData, AndData
	uxtb	w21, w4	// OrData, OrData
	.loc 1 310 0
	bl	DebugAssertEnabled	//
.LVL41:
	uxtb	w0, w0	// D.3392,
	cbz	w0, .L41	// D.3392,
	.loc 1 310 0 is_stmt 0 discriminator 1
	cmp	x19, 7	// EndBit,
	bls	.L41	//,
	ldr	x0, .LC18	//,
	ldr	x2, .LC19	//,
	mov	x1, 310	//,
	bl	DebugAssert	//
.LVL42:
.L41:
	.loc 1 311 0 is_stmt 1
	bl	DebugAssertEnabled	//
.LVL43:
	uxtb	w0, w0	// D.3392,
	cbz	w0, .L42	// D.3392,
	.loc 1 311 0 is_stmt 0 discriminator 1
	cmp	x20, x19	// StartBit, EndBit
	bls	.L42	//,
	ldr	x0, .LC18	//,
	ldr	x2, .LC20	//,
	mov	x1, 311	//,
	bl	DebugAssert	//
.LVL44:
.L42:
	.loc 1 312 0 is_stmt 1
	mov	x1, x20	//, StartBit
	mov	x2, x19	//, EndBit
	mov	w3, w22	//, AndData
	mov	w0, w23	//, Operand
	bl	BitFieldAnd8	//
.LVL45:
	mov	x1, x20	//, StartBit
	mov	x2, x19	//, EndBit
	mov	w3, w21	//, OrData
	.loc 1 318 0
	ldp	x19, x20, [sp]	//,,
.LVL46:
	ldp	x21, x22, [sp,16]	//,,
.LVL47:
	ldp	x23, x30, [sp,32]	//,,
.LVL48:
	add	sp, sp, 48	//,,
	.cfi_restore 30
	.cfi_restore 23
	.cfi_restore 22
	.cfi_restore 21
	.cfi_restore 20
	.cfi_restore 19
	.cfi_def_cfa_offset 0
	.loc 1 312 0
	b	BitFieldOr8	//
.LVL49:
	.cfi_endproc
.LFE7:
	.size	BitFieldAndThenOr8, .-BitFieldAndThenOr8
	.align	3
.LC18:
	.xword	.LC0
	.align	3
.LC19:
	.xword	.LC8
	.align	3
.LC20:
	.xword	.LC10
	.section	.text.BitFieldWrite8,"ax",%progbits
	.align	2
	.global	BitFieldWrite8
	.type	BitFieldWrite8, %function
BitFieldWrite8:
.LFB4:
	.loc 1 191 0
	.cfi_startproc
.LVL50:
	sub	sp, sp, #48	//,,
	.cfi_def_cfa_offset 48
	stp	x19, x20, [sp]	//,,
	stp	x21, x22, [sp,16]	//,,
	str	x30, [sp,32]	//,
	.cfi_offset 19, -48
	.cfi_offset 20, -40
	.cfi_offset 21, -32
	.cfi_offset 22, -24
	.cfi_offset 30, -16
	.loc 1 191 0
	uxtb	w22, w0	// Operand, Operand
	mov	x20, x1	// StartBit, StartBit
	mov	x19, x2	// EndBit, EndBit
	uxtb	w21, w3	// Value, Value
	.loc 1 192 0
	bl	DebugAssertEnabled	//
.LVL51:
	uxtb	w0, w0	// D.3396,
	cbz	w0, .L50	// D.3396,
	.loc 1 192 0 is_stmt 0 discriminator 1
	cmp	x19, 7	// EndBit,
	bls	.L50	//,
	ldr	x0, .LC21	//,
	ldr	x2, .LC22	//,
	mov	x1, 192	//,
	bl	DebugAssert	//
.LVL52:
.L50:
	.loc 1 193 0 is_stmt 1
	bl	DebugAssertEnabled	//
.LVL53:
	uxtb	w0, w0	// D.3396,
	cbz	w0, .L51	// D.3396,
	.loc 1 193 0 is_stmt 0 discriminator 1
	cmp	x20, x19	// StartBit, EndBit
	bls	.L51	//,
	ldr	x0, .LC21	//,
	ldr	x2, .LC23	//,
	mov	x1, 193	//,
	bl	DebugAssert	//
.LVL54:
.L51:
	.loc 1 194 0 is_stmt 1
	mov	w0, w22	//, Operand
	mov	x1, x20	//, StartBit
	mov	x2, x19	//, EndBit
	mov	w4, w21	//, Value
	.loc 1 195 0
	ldp	x19, x20, [sp]	//,,
.LVL55:
	ldp	x21, x22, [sp,16]	//,,
.LVL56:
	ldr	x30, [sp,32]	//,
	.loc 1 194 0
	mov	w3, 0	//,
	.loc 1 195 0
	add	sp, sp, 48	//,,
	.cfi_restore 30
	.cfi_restore 22
	.cfi_restore 21
	.cfi_restore 20
	.cfi_restore 19
	.cfi_def_cfa_offset 0
	.loc 1 194 0
	b	BitFieldAndThenOr8	//
.LVL57:
	.cfi_endproc
.LFE4:
	.size	BitFieldWrite8, .-BitFieldWrite8
	.align	3
.LC21:
	.xword	.LC0
	.align	3
.LC22:
	.xword	.LC8
	.align	3
.LC23:
	.xword	.LC10
	.section	.text.BitFieldRead16,"ax",%progbits
	.align	2
	.global	BitFieldRead16
	.type	BitFieldRead16, %function
BitFieldRead16:
.LFB8:
	.loc 1 346 0
	.cfi_startproc
.LVL58:
	sub	sp, sp, #32	//,,
	.cfi_def_cfa_offset 32
	stp	x19, x20, [sp]	//,,
	stp	x21, x30, [sp,16]	//,,
	.cfi_offset 19, -32
	.cfi_offset 20, -24
	.cfi_offset 21, -16
	.cfi_offset 30, -8
	.loc 1 346 0
	mov	x20, x1	// StartBit, StartBit
	uxth	w21, w0	// Operand, Operand
	mov	x19, x2	// EndBit, EndBit
	.loc 1 347 0
	bl	DebugAssertEnabled	//
.LVL59:
	uxtb	w0, w0	// D.3400,
	cbz	w0, .L59	// D.3400,
	.loc 1 347 0 is_stmt 0 discriminator 1
	cmp	x19, 15	// EndBit,
	bls	.L59	//,
	ldr	x0, .LC24	//,
	ldr	x2, .LC26	//,
	mov	x1, 347	//,
	bl	DebugAssert	//
.LVL60:
.L59:
	.loc 1 348 0 is_stmt 1
	bl	DebugAssertEnabled	//
.LVL61:
	uxtb	w0, w0	// D.3400,
	cbz	w0, .L60	// D.3400,
	.loc 1 348 0 is_stmt 0 discriminator 1
	cmp	x20, x19	// StartBit, EndBit
	bls	.L60	//,
	ldr	x0, .LC24	//,
	ldr	x2, .LC27	//,
	mov	x1, 348	//,
	bl	DebugAssert	//
.LVL62:
.L60:
.LBB12:
.LBB13:
	.loc 1 41 0 is_stmt 1
	mov	x0, -2	// tmp96,
	lsl	x19, x0, x19	// D.3401, tmp96, EndBit
.LVL63:
.LBE13:
.LBE12:
	.loc 1 349 0
	uxth	x21, w21	// D.3401, Operand
.LVL64:
.LBB15:
.LBB14:
	.loc 1 41 0
	bic	x0, x21, x19	// D.3401, D.3401, D.3401
.LBE14:
.LBE15:
	.loc 1 350 0
	lsr	x0, x0, x20	//, D.3401, StartBit
	ldp	x21, x30, [sp,16]	//,,
	ldp	x19, x20, [sp]	//,,
.LVL65:
	add	sp, sp, 32	//,,
	.cfi_restore 30
	.cfi_restore 21
	.cfi_restore 20
	.cfi_restore 19
	.cfi_def_cfa_offset 0
	ret
	.cfi_endproc
.LFE8:
	.size	BitFieldRead16, .-BitFieldRead16
	.align	3
.LC24:
	.xword	.LC0
	.align	3
.LC26:
	.xword	.LC25
	.align	3
.LC27:
	.xword	.LC10
	.section	.text.BitFieldOr16,"ax",%progbits
	.align	2
	.global	BitFieldOr16
	.type	BitFieldOr16, %function
BitFieldOr16:
.LFB10:
	.loc 1 421 0
	.cfi_startproc
.LVL66:
	sub	sp, sp, #48	//,,
	.cfi_def_cfa_offset 48
	stp	x19, x20, [sp]	//,,
	stp	x21, x22, [sp,16]	//,,
	str	x30, [sp,32]	//,
	.cfi_offset 19, -48
	.cfi_offset 20, -40
	.cfi_offset 21, -32
	.cfi_offset 22, -24
	.cfi_offset 30, -16
	.loc 1 421 0
	uxth	w22, w0	// Operand, Operand
	mov	x20, x1	// StartBit, StartBit
	mov	x19, x2	// EndBit, EndBit
	uxth	w21, w3	// OrData, OrData
	.loc 1 422 0
	bl	DebugAssertEnabled	//
.LVL67:
	uxtb	w0, w0	// D.3408,
	cbz	w0, .L68	// D.3408,
	.loc 1 422 0 is_stmt 0 discriminator 1
	cmp	x19, 15	// EndBit,
	bls	.L68	//,
	ldr	x0, .LC28	//,
	ldr	x2, .LC29	//,
	mov	x1, 422	//,
	bl	DebugAssert	//
.LVL68:
.L68:
	.loc 1 423 0 is_stmt 1
	bl	DebugAssertEnabled	//
.LVL69:
	uxtb	w0, w0	// D.3408,
	cbz	w0, .L69	// D.3408,
	.loc 1 423 0 is_stmt 0 discriminator 1
	cmp	x20, x19	// StartBit, EndBit
	bls	.L69	//,
	ldr	x0, .LC28	//,
	ldr	x2, .LC30	//,
	mov	x1, 423	//,
	bl	DebugAssert	//
.LVL70:
.L69:
	.loc 1 424 0 is_stmt 1
	mov	x1, x20	//, StartBit
	mov	x2, x19	//, EndBit
	uxth	x3, w21	//, OrData
	uxth	x0, w22	//, Operand
	bl	InternalBaseLibBitFieldOrUint	//
.LVL71:
	.loc 1 425 0
	ldr	x30, [sp,32]	//,
	ldp	x19, x20, [sp]	//,,
.LVL72:
	ldp	x21, x22, [sp,16]	//,,
.LVL73:
	add	sp, sp, 48	//,,
	.cfi_restore 30
	.cfi_restore 22
	.cfi_restore 21
	.cfi_restore 20
	.cfi_restore 19
	.cfi_def_cfa_offset 0
	ret
	.cfi_endproc
.LFE10:
	.size	BitFieldOr16, .-BitFieldOr16
	.align	3
.LC28:
	.xword	.LC0
	.align	3
.LC29:
	.xword	.LC25
	.align	3
.LC30:
	.xword	.LC10
	.section	.text.BitFieldAnd16,"ax",%progbits
	.align	2
	.global	BitFieldAnd16
	.type	BitFieldAnd16, %function
BitFieldAnd16:
.LFB11:
	.loc 1 459 0
	.cfi_startproc
.LVL74:
	sub	sp, sp, #48	//,,
	.cfi_def_cfa_offset 48
	stp	x19, x20, [sp]	//,,
	stp	x21, x22, [sp,16]	//,,
	str	x30, [sp,32]	//,
	.cfi_offset 19, -48
	.cfi_offset 20, -40
	.cfi_offset 21, -32
	.cfi_offset 22, -24
	.cfi_offset 30, -16
	.loc 1 459 0
	uxth	w22, w0	// Operand, Operand
	mov	x20, x1	// StartBit, StartBit
	mov	x19, x2	// EndBit, EndBit
	uxth	w21, w3	// AndData, AndData
	.loc 1 460 0
	bl	DebugAssertEnabled	//
.LVL75:
	uxtb	w0, w0	// D.3413,
	cbz	w0, .L77	// D.3413,
	.loc 1 460 0 is_stmt 0 discriminator 1
	cmp	x19, 15	// EndBit,
	bls	.L77	//,
	ldr	x0, .LC31	//,
	ldr	x2, .LC32	//,
	mov	x1, 460	//,
	bl	DebugAssert	//
.LVL76:
.L77:
	.loc 1 461 0 is_stmt 1
	bl	DebugAssertEnabled	//
.LVL77:
	uxtb	w0, w0	// D.3413,
	cbz	w0, .L78	// D.3413,
	.loc 1 461 0 is_stmt 0 discriminator 1
	cmp	x20, x19	// StartBit, EndBit
	bls	.L78	//,
	ldr	x0, .LC31	//,
	ldr	x2, .LC33	//,
	mov	x1, 461	//,
	bl	DebugAssert	//
.LVL78:
.L78:
	.loc 1 462 0 is_stmt 1
	mov	x1, x20	//, StartBit
	mov	x2, x19	//, EndBit
	uxth	x3, w21	//, AndData
	uxth	x0, w22	//, Operand
	bl	InternalBaseLibBitFieldAndUint	//
.LVL79:
	.loc 1 463 0
	ldr	x30, [sp,32]	//,
	ldp	x19, x20, [sp]	//,,
.LVL80:
	ldp	x21, x22, [sp,16]	//,,
.LVL81:
	add	sp, sp, 48	//,,
	.cfi_restore 30
	.cfi_restore 22
	.cfi_restore 21
	.cfi_restore 20
	.cfi_restore 19
	.cfi_def_cfa_offset 0
	ret
	.cfi_endproc
.LFE11:
	.size	BitFieldAnd16, .-BitFieldAnd16
	.align	3
.LC31:
	.xword	.LC0
	.align	3
.LC32:
	.xword	.LC25
	.align	3
.LC33:
	.xword	.LC10
	.section	.text.BitFieldAndThenOr16,"ax",%progbits
	.align	2
	.global	BitFieldAndThenOr16
	.type	BitFieldAndThenOr16, %function
BitFieldAndThenOr16:
.LFB12:
	.loc 1 501 0
	.cfi_startproc
.LVL82:
	sub	sp, sp, #48	//,,
	.cfi_def_cfa_offset 48
	stp	x19, x20, [sp]	//,,
	stp	x21, x22, [sp,16]	//,,
	stp	x23, x30, [sp,32]	//,,
	.cfi_offset 19, -48
	.cfi_offset 20, -40
	.cfi_offset 21, -32
	.cfi_offset 22, -24
	.cfi_offset 23, -16
	.cfi_offset 30, -8
	.loc 1 501 0
	mov	x20, x1	// StartBit, StartBit
	uxth	w23, w0	// Operand, Operand
	mov	x19, x2	// EndBit, EndBit
	uxth	w22, w3	// AndData, AndData
	uxth	w21, w4	// OrData, OrData
	.loc 1 502 0
	bl	DebugAssertEnabled	//
.LVL83:
	uxtb	w0, w0	// D.3418,
	cbz	w0, .L86	// D.3418,
	.loc 1 502 0 is_stmt 0 discriminator 1
	cmp	x19, 15	// EndBit,
	bls	.L86	//,
	ldr	x0, .LC34	//,
	ldr	x2, .LC35	//,
	mov	x1, 502	//,
	bl	DebugAssert	//
.LVL84:
.L86:
	.loc 1 503 0 is_stmt 1
	bl	DebugAssertEnabled	//
.LVL85:
	uxtb	w0, w0	// D.3418,
	cbz	w0, .L87	// D.3418,
	.loc 1 503 0 is_stmt 0 discriminator 1
	cmp	x20, x19	// StartBit, EndBit
	bls	.L87	//,
	ldr	x0, .LC34	//,
	ldr	x2, .LC36	//,
	mov	x1, 503	//,
	bl	DebugAssert	//
.LVL86:
.L87:
	.loc 1 504 0 is_stmt 1
	mov	x1, x20	//, StartBit
	mov	x2, x19	//, EndBit
	mov	w3, w22	//, AndData
	mov	w0, w23	//, Operand
	bl	BitFieldAnd16	//
.LVL87:
	mov	x1, x20	//, StartBit
	mov	x2, x19	//, EndBit
	mov	w3, w21	//, OrData
	.loc 1 510 0
	ldp	x19, x20, [sp]	//,,
.LVL88:
	ldp	x21, x22, [sp,16]	//,,
.LVL89:
	ldp	x23, x30, [sp,32]	//,,
.LVL90:
	add	sp, sp, 48	//,,
	.cfi_restore 30
	.cfi_restore 23
	.cfi_restore 22
	.cfi_restore 21
	.cfi_restore 20
	.cfi_restore 19
	.cfi_def_cfa_offset 0
	.loc 1 504 0
	b	BitFieldOr16	//
.LVL91:
	.cfi_endproc
.LFE12:
	.size	BitFieldAndThenOr16, .-BitFieldAndThenOr16
	.align	3
.LC34:
	.xword	.LC0
	.align	3
.LC35:
	.xword	.LC25
	.align	3
.LC36:
	.xword	.LC10
	.section	.text.BitFieldWrite16,"ax",%progbits
	.align	2
	.global	BitFieldWrite16
	.type	BitFieldWrite16, %function
BitFieldWrite16:
.LFB9:
	.loc 1 383 0
	.cfi_startproc
.LVL92:
	sub	sp, sp, #48	//,,
	.cfi_def_cfa_offset 48
	stp	x19, x20, [sp]	//,,
	stp	x21, x22, [sp,16]	//,,
	str	x30, [sp,32]	//,
	.cfi_offset 19, -48
	.cfi_offset 20, -40
	.cfi_offset 21, -32
	.cfi_offset 22, -24
	.cfi_offset 30, -16
	.loc 1 383 0
	uxth	w22, w0	// Operand, Operand
	mov	x20, x1	// StartBit, StartBit
	mov	x19, x2	// EndBit, EndBit
	uxth	w21, w3	// Value, Value
	.loc 1 384 0
	bl	DebugAssertEnabled	//
.LVL93:
	uxtb	w0, w0	// D.3423,
	cbz	w0, .L95	// D.3423,
	.loc 1 384 0 is_stmt 0 discriminator 1
	cmp	x19, 15	// EndBit,
	bls	.L95	//,
	ldr	x0, .LC37	//,
	ldr	x2, .LC38	//,
	mov	x1, 384	//,
	bl	DebugAssert	//
.LVL94:
.L95:
	.loc 1 385 0 is_stmt 1
	bl	DebugAssertEnabled	//
.LVL95:
	uxtb	w0, w0	// D.3423,
	cbz	w0, .L96	// D.3423,
	.loc 1 385 0 is_stmt 0 discriminator 1
	cmp	x20, x19	// StartBit, EndBit
	bls	.L96	//,
	ldr	x0, .LC37	//,
	ldr	x2, .LC39	//,
	mov	x1, 385	//,
	bl	DebugAssert	//
.LVL96:
.L96:
	.loc 1 386 0 is_stmt 1
	mov	w0, w22	//, Operand
	mov	x1, x20	//, StartBit
	mov	x2, x19	//, EndBit
	mov	w4, w21	//, Value
	.loc 1 387 0
	ldp	x19, x20, [sp]	//,,
.LVL97:
	ldp	x21, x22, [sp,16]	//,,
.LVL98:
	ldr	x30, [sp,32]	//,
	.loc 1 386 0
	mov	w3, 0	//,
	.loc 1 387 0
	add	sp, sp, 48	//,,
	.cfi_restore 30
	.cfi_restore 22
	.cfi_restore 21
	.cfi_restore 20
	.cfi_restore 19
	.cfi_def_cfa_offset 0
	.loc 1 386 0
	b	BitFieldAndThenOr16	//
.LVL99:
	.cfi_endproc
.LFE9:
	.size	BitFieldWrite16, .-BitFieldWrite16
	.align	3
.LC37:
	.xword	.LC0
	.align	3
.LC38:
	.xword	.LC25
	.align	3
.LC39:
	.xword	.LC10
	.section	.text.BitFieldRead32,"ax",%progbits
	.align	2
	.global	BitFieldRead32
	.type	BitFieldRead32, %function
BitFieldRead32:
.LFB13:
	.loc 1 538 0
	.cfi_startproc
.LVL100:
	sub	sp, sp, #32	//,,
	.cfi_def_cfa_offset 32
	stp	x19, x20, [sp]	//,,
	stp	x21, x30, [sp,16]	//,,
	.cfi_offset 19, -32
	.cfi_offset 20, -24
	.cfi_offset 21, -16
	.cfi_offset 30, -8
	.loc 1 538 0
	mov	x20, x1	// StartBit, StartBit
	mov	w21, w0	// Operand, Operand
	mov	x19, x2	// EndBit, EndBit
	.loc 1 539 0
	bl	DebugAssertEnabled	//
.LVL101:
	uxtb	w0, w0	// D.3427,
	cbz	w0, .L104	// D.3427,
	.loc 1 539 0 is_stmt 0 discriminator 1
	cmp	x19, 31	// EndBit,
	bls	.L104	//,
	ldr	x0, .LC40	//,
	ldr	x2, .LC42	//,
	mov	x1, 539	//,
	bl	DebugAssert	//
.LVL102:
.L104:
	.loc 1 540 0 is_stmt 1
	bl	DebugAssertEnabled	//
.LVL103:
	uxtb	w0, w0	// D.3427,
	cbz	w0, .L105	// D.3427,
	.loc 1 540 0 is_stmt 0 discriminator 1
	cmp	x20, x19	// StartBit, EndBit
	bls	.L105	//,
	ldr	x0, .LC40	//,
	ldr	x2, .LC43	//,
	mov	x1, 540	//,
	bl	DebugAssert	//
.LVL104:
.L105:
.LBB16:
.LBB17:
	.loc 1 41 0 is_stmt 1
	mov	x0, -2	// tmp96,
	lsl	x19, x0, x19	// D.3428, tmp96, EndBit
.LVL105:
.LBE17:
.LBE16:
	.loc 1 541 0
	uxtw	x21, w21	// D.3428, Operand
.LVL106:
.LBB19:
.LBB18:
	.loc 1 41 0
	bic	x0, x21, x19	// D.3428, D.3428, D.3428
.LBE18:
.LBE19:
	.loc 1 542 0
	lsr	x0, x0, x20	//, D.3428, StartBit
	ldp	x21, x30, [sp,16]	//,,
.LVL107:
	ldp	x19, x20, [sp]	//,,
.LVL108:
	add	sp, sp, 32	//,,
	.cfi_restore 30
	.cfi_restore 21
	.cfi_restore 20
	.cfi_restore 19
	.cfi_def_cfa_offset 0
	ret
	.cfi_endproc
.LFE13:
	.size	BitFieldRead32, .-BitFieldRead32
	.align	3
.LC40:
	.xword	.LC0
	.align	3
.LC42:
	.xword	.LC41
	.align	3
.LC43:
	.xword	.LC10
	.section	.text.BitFieldOr32,"ax",%progbits
	.align	2
	.global	BitFieldOr32
	.type	BitFieldOr32, %function
BitFieldOr32:
.LFB15:
	.loc 1 613 0
	.cfi_startproc
.LVL109:
	sub	sp, sp, #48	//,,
	.cfi_def_cfa_offset 48
	stp	x19, x20, [sp]	//,,
	stp	x21, x22, [sp,16]	//,,
	str	x30, [sp,32]	//,
	.cfi_offset 19, -48
	.cfi_offset 20, -40
	.cfi_offset 21, -32
	.cfi_offset 22, -24
	.cfi_offset 30, -16
	.loc 1 613 0
	mov	w22, w0	// Operand, Operand
	mov	x20, x1	// StartBit, StartBit
	mov	x19, x2	// EndBit, EndBit
	mov	w21, w3	// OrData, OrData
	.loc 1 614 0
	bl	DebugAssertEnabled	//
.LVL110:
	uxtb	w0, w0	// D.3435,
	cbz	w0, .L113	// D.3435,
	.loc 1 614 0 is_stmt 0 discriminator 1
	cmp	x19, 31	// EndBit,
	bls	.L113	//,
	ldr	x0, .LC44	//,
	ldr	x2, .LC45	//,
	mov	x1, 614	//,
	bl	DebugAssert	//
.LVL111:
.L113:
	.loc 1 615 0 is_stmt 1
	bl	DebugAssertEnabled	//
.LVL112:
	uxtb	w0, w0	// D.3435,
	cbz	w0, .L114	// D.3435,
	.loc 1 615 0 is_stmt 0 discriminator 1
	cmp	x20, x19	// StartBit, EndBit
	bls	.L114	//,
	ldr	x0, .LC44	//,
	ldr	x2, .LC46	//,
	mov	x1, 615	//,
	bl	DebugAssert	//
.LVL113:
.L114:
	.loc 1 616 0 is_stmt 1
	mov	x1, x20	//, StartBit
	mov	x2, x19	//, EndBit
	uxtw	x3, w21	//, OrData
	uxtw	x0, w22	//, Operand
	bl	InternalBaseLibBitFieldOrUint	//
.LVL114:
	.loc 1 617 0
	ldr	x30, [sp,32]	//,
	ldp	x19, x20, [sp]	//,,
.LVL115:
	ldp	x21, x22, [sp,16]	//,,
.LVL116:
	add	sp, sp, 48	//,,
	.cfi_restore 30
	.cfi_restore 22
	.cfi_restore 21
	.cfi_restore 20
	.cfi_restore 19
	.cfi_def_cfa_offset 0
	ret
	.cfi_endproc
.LFE15:
	.size	BitFieldOr32, .-BitFieldOr32
	.align	3
.LC44:
	.xword	.LC0
	.align	3
.LC45:
	.xword	.LC41
	.align	3
.LC46:
	.xword	.LC10
	.section	.text.BitFieldAnd32,"ax",%progbits
	.align	2
	.global	BitFieldAnd32
	.type	BitFieldAnd32, %function
BitFieldAnd32:
.LFB16:
	.loc 1 651 0
	.cfi_startproc
.LVL117:
	sub	sp, sp, #48	//,,
	.cfi_def_cfa_offset 48
	stp	x19, x20, [sp]	//,,
	stp	x21, x22, [sp,16]	//,,
	str	x30, [sp,32]	//,
	.cfi_offset 19, -48
	.cfi_offset 20, -40
	.cfi_offset 21, -32
	.cfi_offset 22, -24
	.cfi_offset 30, -16
	.loc 1 651 0
	mov	w22, w0	// Operand, Operand
	mov	x20, x1	// StartBit, StartBit
	mov	x19, x2	// EndBit, EndBit
	mov	w21, w3	// AndData, AndData
	.loc 1 652 0
	bl	DebugAssertEnabled	//
.LVL118:
	uxtb	w0, w0	// D.3440,
	cbz	w0, .L122	// D.3440,
	.loc 1 652 0 is_stmt 0 discriminator 1
	cmp	x19, 31	// EndBit,
	bls	.L122	//,
	ldr	x0, .LC47	//,
	ldr	x2, .LC48	//,
	mov	x1, 652	//,
	bl	DebugAssert	//
.LVL119:
.L122:
	.loc 1 653 0 is_stmt 1
	bl	DebugAssertEnabled	//
.LVL120:
	uxtb	w0, w0	// D.3440,
	cbz	w0, .L123	// D.3440,
	.loc 1 653 0 is_stmt 0 discriminator 1
	cmp	x20, x19	// StartBit, EndBit
	bls	.L123	//,
	ldr	x0, .LC47	//,
	ldr	x2, .LC49	//,
	mov	x1, 653	//,
	bl	DebugAssert	//
.LVL121:
.L123:
	.loc 1 654 0 is_stmt 1
	mov	x1, x20	//, StartBit
	mov	x2, x19	//, EndBit
	uxtw	x3, w21	//, AndData
	uxtw	x0, w22	//, Operand
	bl	InternalBaseLibBitFieldAndUint	//
.LVL122:
	.loc 1 655 0
	ldr	x30, [sp,32]	//,
	ldp	x19, x20, [sp]	//,,
.LVL123:
	ldp	x21, x22, [sp,16]	//,,
.LVL124:
	add	sp, sp, 48	//,,
	.cfi_restore 30
	.cfi_restore 22
	.cfi_restore 21
	.cfi_restore 20
	.cfi_restore 19
	.cfi_def_cfa_offset 0
	ret
	.cfi_endproc
.LFE16:
	.size	BitFieldAnd32, .-BitFieldAnd32
	.align	3
.LC47:
	.xword	.LC0
	.align	3
.LC48:
	.xword	.LC41
	.align	3
.LC49:
	.xword	.LC10
	.section	.text.BitFieldAndThenOr32,"ax",%progbits
	.align	2
	.global	BitFieldAndThenOr32
	.type	BitFieldAndThenOr32, %function
BitFieldAndThenOr32:
.LFB17:
	.loc 1 693 0
	.cfi_startproc
.LVL125:
	sub	sp, sp, #48	//,,
	.cfi_def_cfa_offset 48
	stp	x19, x20, [sp]	//,,
	stp	x21, x22, [sp,16]	//,,
	stp	x23, x30, [sp,32]	//,,
	.cfi_offset 19, -48
	.cfi_offset 20, -40
	.cfi_offset 21, -32
	.cfi_offset 22, -24
	.cfi_offset 23, -16
	.cfi_offset 30, -8
	.loc 1 693 0
	mov	x20, x1	// StartBit, StartBit
	mov	w23, w0	// Operand, Operand
	mov	x19, x2	// EndBit, EndBit
	mov	w22, w3	// AndData, AndData
	mov	w21, w4	// OrData, OrData
	.loc 1 694 0
	bl	DebugAssertEnabled	//
.LVL126:
	uxtb	w0, w0	// D.3445,
	cbz	w0, .L131	// D.3445,
	.loc 1 694 0 is_stmt 0 discriminator 1
	cmp	x19, 31	// EndBit,
	bls	.L131	//,
	ldr	x0, .LC50	//,
	ldr	x2, .LC51	//,
	mov	x1, 694	//,
	bl	DebugAssert	//
.LVL127:
.L131:
	.loc 1 695 0 is_stmt 1
	bl	DebugAssertEnabled	//
.LVL128:
	uxtb	w0, w0	// D.3445,
	cbz	w0, .L132	// D.3445,
	.loc 1 695 0 is_stmt 0 discriminator 1
	cmp	x20, x19	// StartBit, EndBit
	bls	.L132	//,
	ldr	x0, .LC50	//,
	ldr	x2, .LC52	//,
	mov	x1, 695	//,
	bl	DebugAssert	//
.LVL129:
.L132:
	.loc 1 696 0 is_stmt 1
	mov	x1, x20	//, StartBit
	mov	x2, x19	//, EndBit
	mov	w3, w22	//, AndData
	mov	w0, w23	//, Operand
	bl	BitFieldAnd32	//
.LVL130:
	mov	x1, x20	//, StartBit
	mov	x2, x19	//, EndBit
	mov	w3, w21	//, OrData
	.loc 1 702 0
	ldp	x19, x20, [sp]	//,,
.LVL131:
	ldp	x21, x22, [sp,16]	//,,
.LVL132:
	ldp	x23, x30, [sp,32]	//,,
.LVL133:
	add	sp, sp, 48	//,,
	.cfi_restore 30
	.cfi_restore 23
	.cfi_restore 22
	.cfi_restore 21
	.cfi_restore 20
	.cfi_restore 19
	.cfi_def_cfa_offset 0
	.loc 1 696 0
	b	BitFieldOr32	//
.LVL134:
	.cfi_endproc
.LFE17:
	.size	BitFieldAndThenOr32, .-BitFieldAndThenOr32
	.align	3
.LC50:
	.xword	.LC0
	.align	3
.LC51:
	.xword	.LC41
	.align	3
.LC52:
	.xword	.LC10
	.section	.text.BitFieldWrite32,"ax",%progbits
	.align	2
	.global	BitFieldWrite32
	.type	BitFieldWrite32, %function
BitFieldWrite32:
.LFB14:
	.loc 1 575 0
	.cfi_startproc
.LVL135:
	sub	sp, sp, #48	//,,
	.cfi_def_cfa_offset 48
	stp	x19, x20, [sp]	//,,
	stp	x21, x22, [sp,16]	//,,
	str	x30, [sp,32]	//,
	.cfi_offset 19, -48
	.cfi_offset 20, -40
	.cfi_offset 21, -32
	.cfi_offset 22, -24
	.cfi_offset 30, -16
	.loc 1 575 0
	mov	w22, w0	// Operand, Operand
	mov	x20, x1	// StartBit, StartBit
	mov	x19, x2	// EndBit, EndBit
	mov	w21, w3	// Value, Value
	.loc 1 576 0
	bl	DebugAssertEnabled	//
.LVL136:
	uxtb	w0, w0	// D.3450,
	cbz	w0, .L140	// D.3450,
	.loc 1 576 0 is_stmt 0 discriminator 1
	cmp	x19, 31	// EndBit,
	bls	.L140	//,
	ldr	x0, .LC53	//,
	ldr	x2, .LC54	//,
	mov	x1, 576	//,
	bl	DebugAssert	//
.LVL137:
.L140:
	.loc 1 577 0 is_stmt 1
	bl	DebugAssertEnabled	//
.LVL138:
	uxtb	w0, w0	// D.3450,
	cbz	w0, .L141	// D.3450,
	.loc 1 577 0 is_stmt 0 discriminator 1
	cmp	x20, x19	// StartBit, EndBit
	bls	.L141	//,
	ldr	x0, .LC53	//,
	ldr	x2, .LC55	//,
	mov	x1, 577	//,
	bl	DebugAssert	//
.LVL139:
.L141:
	.loc 1 578 0 is_stmt 1
	mov	w0, w22	//, Operand
	mov	x1, x20	//, StartBit
	mov	x2, x19	//, EndBit
	mov	w4, w21	//, Value
	.loc 1 579 0
	ldp	x19, x20, [sp]	//,,
.LVL140:
	ldp	x21, x22, [sp,16]	//,,
.LVL141:
	ldr	x30, [sp,32]	//,
	.loc 1 578 0
	mov	w3, 0	//,
	.loc 1 579 0
	add	sp, sp, 48	//,,
	.cfi_restore 30
	.cfi_restore 22
	.cfi_restore 21
	.cfi_restore 20
	.cfi_restore 19
	.cfi_def_cfa_offset 0
	.loc 1 578 0
	b	BitFieldAndThenOr32	//
.LVL142:
	.cfi_endproc
.LFE14:
	.size	BitFieldWrite32, .-BitFieldWrite32
	.align	3
.LC53:
	.xword	.LC0
	.align	3
.LC54:
	.xword	.LC41
	.align	3
.LC55:
	.xword	.LC10
	.section	.text.BitFieldRead64,"ax",%progbits
	.align	2
	.global	BitFieldRead64
	.type	BitFieldRead64, %function
BitFieldRead64:
.LFB18:
	.loc 1 730 0
	.cfi_startproc
.LVL143:
	sub	sp, sp, #32	//,,
	.cfi_def_cfa_offset 32
	stp	x19, x20, [sp]	//,,
	stp	x21, x30, [sp,16]	//,,
	.cfi_offset 19, -32
	.cfi_offset 20, -24
	.cfi_offset 21, -16
	.cfi_offset 30, -8
	.loc 1 730 0
	mov	x20, x1	// StartBit, StartBit
	mov	x21, x0	// Operand, Operand
	mov	x19, x2	// EndBit, EndBit
	.loc 1 731 0
	bl	DebugAssertEnabled	//
.LVL144:
	uxtb	w0, w0	// D.3454,
	cbz	w0, .L149	// D.3454,
	.loc 1 731 0 is_stmt 0 discriminator 1
	cmp	x19, 63	// EndBit,
	bls	.L149	//,
	ldr	x0, .LC56	//,
	ldr	x2, .LC58	//,
	mov	x1, 731	//,
	bl	DebugAssert	//
.LVL145:
.L149:
	.loc 1 732 0 is_stmt 1
	bl	DebugAssertEnabled	//
.LVL146:
	uxtb	w0, w0	// D.3454,
	cbz	w0, .L150	// D.3454,
	.loc 1 732 0 is_stmt 0 discriminator 1
	cmp	x20, x19	// StartBit, EndBit
	bls	.L150	//,
	ldr	x0, .LC56	//,
	ldr	x2, .LC59	//,
	mov	x1, 732	//,
	bl	DebugAssert	//
.LVL147:
.L150:
	.loc 1 733 0 is_stmt 1
	mov	x1, x19	//, EndBit
	mov	x0, -2	//,
	bl	LShiftU64	//
.LVL148:
	bic	x0, x21, x0	//, Operand,
	mov	x1, x20	//, StartBit
	.loc 1 734 0
	ldp	x21, x30, [sp,16]	//,,
.LVL149:
	ldp	x19, x20, [sp]	//,,
.LVL150:
	add	sp, sp, 32	//,,
	.cfi_restore 30
	.cfi_restore 21
	.cfi_restore 20
	.cfi_restore 19
	.cfi_def_cfa_offset 0
	.loc 1 733 0
	b	RShiftU64	//
.LVL151:
	.cfi_endproc
.LFE18:
	.size	BitFieldRead64, .-BitFieldRead64
	.align	3
.LC56:
	.xword	.LC0
	.align	3
.LC58:
	.xword	.LC57
	.align	3
.LC59:
	.xword	.LC10
	.section	.text.BitFieldOr64,"ax",%progbits
	.align	2
	.global	BitFieldOr64
	.type	BitFieldOr64, %function
BitFieldOr64:
.LFB20:
	.loc 1 805 0
	.cfi_startproc
.LVL152:
	sub	sp, sp, #64	//,,
	.cfi_def_cfa_offset 64
	stp	x19, x20, [sp]	//,,
	stp	x21, x22, [sp,16]	//,,
	stp	x23, x24, [sp,32]	//,,
	str	x30, [sp,48]	//,
	.cfi_offset 19, -64
	.cfi_offset 20, -56
	.cfi_offset 21, -48
	.cfi_offset 22, -40
	.cfi_offset 23, -32
	.cfi_offset 24, -24
	.cfi_offset 30, -16
	.loc 1 805 0
	mov	x23, x0	// Operand, Operand
	mov	x20, x1	// StartBit, StartBit
	mov	x19, x2	// EndBit, EndBit
	mov	x21, x3	// OrData, OrData
	.loc 1 809 0
	bl	DebugAssertEnabled	//
.LVL153:
	uxtb	w0, w0	// D.3460,
	cbz	w0, .L158	// D.3460,
	.loc 1 809 0 is_stmt 0 discriminator 1
	cmp	x19, 63	// EndBit,
	bls	.L158	//,
	ldr	x0, .LC60	//,
	ldr	x2, .LC61	//,
	mov	x1, 809	//,
	bl	DebugAssert	//
.LVL154:
.L158:
	.loc 1 810 0 is_stmt 1
	bl	DebugAssertEnabled	//
.LVL155:
	uxtb	w0, w0	// D.3460,
	cbz	w0, .L159	// D.3460,
	.loc 1 810 0 is_stmt 0 discriminator 1
	cmp	x20, x19	// StartBit, EndBit
	bls	.L159	//,
	ldr	x0, .LC60	//,
	ldr	x2, .LC62	//,
	mov	x1, 810	//,
	bl	DebugAssert	//
.LVL156:
.L159:
	.loc 1 817 0 is_stmt 1
	bl	DebugAssertEnabled	//
.LVL157:
	uxtb	w0, w0	// D.3460,
	cbz	w0, .L161	// D.3460,
	.loc 1 817 0 is_stmt 0 discriminator 1
	sub	x22, x19, x20	// D.3461, EndBit, StartBit
	mov	x1, x22	//, D.3461
	mov	x0, x21	//, OrData
	bl	RShiftU64	//
.LVL158:
	mov	x24, x0	// D.3461,
	mov	x1, x22	//, D.3461
	mov	x0, x21	//, OrData
	bl	RShiftU64	//
.LVL159:
	and	x0, x0, 1	// D.3461,,
	cmp	x24, x0	// D.3461, D.3461
	beq	.L161	//,
	ldr	x0, .LC60	//,
	ldr	x2, .LC64	//,
	mov	x1, 817	//,
	bl	DebugAssert	//
.LVL160:
.L161:
	.loc 1 819 0 is_stmt 1
	mov	x1, x20	//, StartBit
	mov	x0, x21	//, OrData
	bl	LShiftU64	//
.LVL161:
	mov	x20, x0	// Value1,
.LVL162:
	.loc 1 820 0
	mov	x1, x19	//, EndBit
	mov	x0, -2	//,
.LVL163:
	bl	LShiftU64	//
.LVL164:
	.loc 1 822 0
	bic	x0, x20, x0	// D.3461, Value1,
.LVL165:
	.loc 1 823 0
	orr	x0, x0, x23	//, D.3461, Operand
	ldp	x19, x20, [sp]	//,,
.LVL166:
	ldp	x21, x22, [sp,16]	//,,
.LVL167:
	ldp	x23, x24, [sp,32]	//,,
.LVL168:
	ldr	x30, [sp,48]	//,
	add	sp, sp, 64	//,,
	.cfi_restore 30
	.cfi_restore 24
	.cfi_restore 23
	.cfi_restore 22
	.cfi_restore 21
	.cfi_restore 20
	.cfi_restore 19
	.cfi_def_cfa_offset 0
	ret
	.cfi_endproc
.LFE20:
	.size	BitFieldOr64, .-BitFieldOr64
	.align	3
.LC60:
	.xword	.LC0
	.align	3
.LC61:
	.xword	.LC57
	.align	3
.LC62:
	.xword	.LC10
	.align	3
.LC64:
	.xword	.LC63
	.section	.text.BitFieldAnd64,"ax",%progbits
	.align	2
	.global	BitFieldAnd64
	.type	BitFieldAnd64, %function
BitFieldAnd64:
.LFB21:
	.loc 1 857 0
	.cfi_startproc
.LVL169:
	sub	sp, sp, #64	//,,
	.cfi_def_cfa_offset 64
	stp	x19, x20, [sp]	//,,
	stp	x21, x22, [sp,16]	//,,
	stp	x23, x24, [sp,32]	//,,
	str	x30, [sp,48]	//,
	.cfi_offset 19, -64
	.cfi_offset 20, -56
	.cfi_offset 21, -48
	.cfi_offset 22, -40
	.cfi_offset 23, -32
	.cfi_offset 24, -24
	.cfi_offset 30, -16
	.loc 1 857 0
	mov	x23, x0	// Operand, Operand
	mov	x20, x1	// StartBit, StartBit
	mov	x19, x2	// EndBit, EndBit
	mov	x21, x3	// AndData, AndData
	.loc 1 861 0
	bl	DebugAssertEnabled	//
.LVL170:
	uxtb	w0, w0	// D.3466,
	cbz	w0, .L170	// D.3466,
	.loc 1 861 0 is_stmt 0 discriminator 1
	cmp	x19, 63	// EndBit,
	bls	.L170	//,
	ldr	x0, .LC65	//,
	ldr	x2, .LC66	//,
	mov	x1, 861	//,
	bl	DebugAssert	//
.LVL171:
.L170:
	.loc 1 862 0 is_stmt 1
	bl	DebugAssertEnabled	//
.LVL172:
	uxtb	w0, w0	// D.3466,
	cbz	w0, .L171	// D.3466,
	.loc 1 862 0 is_stmt 0 discriminator 1
	cmp	x20, x19	// StartBit, EndBit
	bls	.L171	//,
	ldr	x0, .LC65	//,
	ldr	x2, .LC67	//,
	mov	x1, 862	//,
	bl	DebugAssert	//
.LVL173:
.L171:
	.loc 1 869 0 is_stmt 1
	bl	DebugAssertEnabled	//
.LVL174:
	uxtb	w0, w0	// D.3466,
	cbz	w0, .L173	// D.3466,
	.loc 1 869 0 is_stmt 0 discriminator 1
	sub	x22, x19, x20	// D.3467, EndBit, StartBit
	mov	x1, x22	//, D.3467
	mov	x0, x21	//, AndData
	bl	RShiftU64	//
.LVL175:
	mov	x24, x0	// D.3467,
	mov	x1, x22	//, D.3467
	mov	x0, x21	//, AndData
	bl	RShiftU64	//
.LVL176:
	and	x0, x0, 1	// D.3467,,
	cmp	x24, x0	// D.3467, D.3467
	beq	.L173	//,
	ldr	x0, .LC65	//,
	ldr	x2, .LC69	//,
	mov	x1, 869	//,
	bl	DebugAssert	//
.LVL177:
.L173:
	.loc 1 871 0 is_stmt 1
	mov	x1, x20	//, StartBit
	mvn	x0, x21	//, AndData
	bl	LShiftU64	//
.LVL178:
	mov	x20, x0	// Value1,
.LVL179:
	.loc 1 872 0
	mov	x1, x19	//, EndBit
	mov	x0, -2	//,
.LVL180:
	bl	LShiftU64	//
.LVL181:
	.loc 1 874 0
	orn	x0, x0, x20	// D.3467,, Value1
.LVL182:
	.loc 1 875 0
	and	x0, x0, x23	//, D.3467, Operand
	ldp	x19, x20, [sp]	//,,
.LVL183:
	ldp	x21, x22, [sp,16]	//,,
.LVL184:
	ldp	x23, x24, [sp,32]	//,,
.LVL185:
	ldr	x30, [sp,48]	//,
	add	sp, sp, 64	//,,
	.cfi_restore 30
	.cfi_restore 24
	.cfi_restore 23
	.cfi_restore 22
	.cfi_restore 21
	.cfi_restore 20
	.cfi_restore 19
	.cfi_def_cfa_offset 0
	ret
	.cfi_endproc
.LFE21:
	.size	BitFieldAnd64, .-BitFieldAnd64
	.align	3
.LC65:
	.xword	.LC0
	.align	3
.LC66:
	.xword	.LC57
	.align	3
.LC67:
	.xword	.LC10
	.align	3
.LC69:
	.xword	.LC68
	.section	.text.BitFieldAndThenOr64,"ax",%progbits
	.align	2
	.global	BitFieldAndThenOr64
	.type	BitFieldAndThenOr64, %function
BitFieldAndThenOr64:
.LFB22:
	.loc 1 913 0
	.cfi_startproc
.LVL186:
	sub	sp, sp, #48	//,,
	.cfi_def_cfa_offset 48
	stp	x19, x20, [sp]	//,,
	stp	x21, x22, [sp,16]	//,,
	stp	x23, x30, [sp,32]	//,,
	.cfi_offset 19, -48
	.cfi_offset 20, -40
	.cfi_offset 21, -32
	.cfi_offset 22, -24
	.cfi_offset 23, -16
	.cfi_offset 30, -8
	.loc 1 913 0
	mov	x20, x1	// StartBit, StartBit
	mov	x23, x0	// Operand, Operand
	mov	x19, x2	// EndBit, EndBit
	mov	x22, x3	// AndData, AndData
	mov	x21, x4	// OrData, OrData
	.loc 1 914 0
	bl	DebugAssertEnabled	//
.LVL187:
	uxtb	w0, w0	// D.3472,
	cbz	w0, .L182	// D.3472,
	.loc 1 914 0 is_stmt 0 discriminator 1
	cmp	x19, 63	// EndBit,
	bls	.L182	//,
	ldr	x0, .LC70	//,
	ldr	x2, .LC71	//,
	mov	x1, 914	//,
	bl	DebugAssert	//
.LVL188:
.L182:
	.loc 1 915 0 is_stmt 1
	bl	DebugAssertEnabled	//
.LVL189:
	uxtb	w0, w0	// D.3472,
	cbz	w0, .L183	// D.3472,
	.loc 1 915 0 is_stmt 0 discriminator 1
	cmp	x20, x19	// StartBit, EndBit
	bls	.L183	//,
	ldr	x0, .LC70	//,
	ldr	x2, .LC72	//,
	mov	x1, 915	//,
	bl	DebugAssert	//
.LVL190:
.L183:
	.loc 1 916 0 is_stmt 1
	mov	x1, x20	//, StartBit
	mov	x2, x19	//, EndBit
	mov	x3, x22	//, AndData
	mov	x0, x23	//, Operand
	bl	BitFieldAnd64	//
.LVL191:
	mov	x1, x20	//, StartBit
	mov	x2, x19	//, EndBit
	mov	x3, x21	//, OrData
	.loc 1 922 0
	ldp	x19, x20, [sp]	//,,
.LVL192:
	ldp	x21, x22, [sp,16]	//,,
.LVL193:
	ldp	x23, x30, [sp,32]	//,,
.LVL194:
	add	sp, sp, 48	//,,
	.cfi_restore 30
	.cfi_restore 23
	.cfi_restore 22
	.cfi_restore 21
	.cfi_restore 20
	.cfi_restore 19
	.cfi_def_cfa_offset 0
	.loc 1 916 0
	b	BitFieldOr64	//
.LVL195:
	.cfi_endproc
.LFE22:
	.size	BitFieldAndThenOr64, .-BitFieldAndThenOr64
	.align	3
.LC70:
	.xword	.LC0
	.align	3
.LC71:
	.xword	.LC57
	.align	3
.LC72:
	.xword	.LC10
	.section	.text.BitFieldWrite64,"ax",%progbits
	.align	2
	.global	BitFieldWrite64
	.type	BitFieldWrite64, %function
BitFieldWrite64:
.LFB19:
	.loc 1 767 0
	.cfi_startproc
.LVL196:
	sub	sp, sp, #48	//,,
	.cfi_def_cfa_offset 48
	stp	x19, x20, [sp]	//,,
	stp	x21, x22, [sp,16]	//,,
	str	x30, [sp,32]	//,
	.cfi_offset 19, -48
	.cfi_offset 20, -40
	.cfi_offset 21, -32
	.cfi_offset 22, -24
	.cfi_offset 30, -16
	.loc 1 767 0
	mov	x22, x0	// Operand, Operand
	mov	x20, x1	// StartBit, StartBit
	mov	x19, x2	// EndBit, EndBit
	mov	x21, x3	// Value, Value
	.loc 1 768 0
	bl	DebugAssertEnabled	//
.LVL197:
	uxtb	w0, w0	// D.3477,
	cbz	w0, .L191	// D.3477,
	.loc 1 768 0 is_stmt 0 discriminator 1
	cmp	x19, 63	// EndBit,
	bls	.L191	//,
	ldr	x0, .LC73	//,
	ldr	x2, .LC74	//,
	mov	x1, 768	//,
	bl	DebugAssert	//
.LVL198:
.L191:
	.loc 1 769 0 is_stmt 1
	bl	DebugAssertEnabled	//
.LVL199:
	uxtb	w0, w0	// D.3477,
	cbz	w0, .L192	// D.3477,
	.loc 1 769 0 is_stmt 0 discriminator 1
	cmp	x20, x19	// StartBit, EndBit
	bls	.L192	//,
	ldr	x0, .LC73	//,
	ldr	x2, .LC75	//,
	mov	x1, 769	//,
	bl	DebugAssert	//
.LVL200:
.L192:
	.loc 1 770 0 is_stmt 1
	mov	x0, x22	//, Operand
	mov	x1, x20	//, StartBit
	mov	x2, x19	//, EndBit
	mov	x4, x21	//, Value
	.loc 1 771 0
	ldp	x19, x20, [sp]	//,,
.LVL201:
	ldp	x21, x22, [sp,16]	//,,
.LVL202:
	ldr	x30, [sp,32]	//,
	.loc 1 770 0
	mov	x3, 0	//,
	.loc 1 771 0
	add	sp, sp, 48	//,,
	.cfi_restore 30
	.cfi_restore 22
	.cfi_restore 21
	.cfi_restore 20
	.cfi_restore 19
	.cfi_def_cfa_offset 0
	.loc 1 770 0
	b	BitFieldAndThenOr64	//
.LVL203:
	.cfi_endproc
.LFE19:
	.size	BitFieldWrite64, .-BitFieldWrite64
	.align	3
.LC73:
	.xword	.LC0
	.align	3
.LC74:
	.xword	.LC57
	.align	3
.LC75:
	.xword	.LC10
	.section	.rodata.str1.1,"aMS",%progbits,1
.LC0:
	.string	"/root/next-loader/src/edk2/UDK2018/MyWorkSpace/MdePkg/Library/BaseLib/BitField.c"
.LC2:
	.string	"(OrData >> (EndBit - StartBit)) == ((OrData >> (EndBit - StartBit)) & 1)"
.LC5:
	.string	"(AndData >> (EndBit - StartBit)) == ((AndData >> (EndBit - StartBit)) & 1)"
.LC8:
	.string	"EndBit < 8"
.LC10:
	.string	"StartBit <= EndBit"
.LC25:
	.string	"EndBit < 16"
.LC41:
	.string	"EndBit < 32"
.LC57:
	.string	"EndBit < 64"
.LC63:
	.string	"RShiftU64 (OrData, EndBit - StartBit) == (RShiftU64 (OrData, EndBit - StartBit) & 1)"
.LC68:
	.string	"RShiftU64 (AndData, EndBit - StartBit) == (RShiftU64 (AndData, EndBit - StartBit) & 1)"
	.text
.Letext0:
	.file 2 "/root/next-loader/src/edk2/UDK2018/MyWorkSpace/MdePkg/Include/AArch64/ProcessorBind.h"
	.file 3 "/root/next-loader/src/edk2/UDK2018/MyWorkSpace/MdePkg/Include/Library/BaseLib.h"
	.file 4 "/root/next-loader/src/edk2/UDK2018/MyWorkSpace/MdePkg/Include/Library/DebugLib.h"
	.section	.note.GNU-stack,"",%progbits
