	.cpu generic+fp+simd
	.file	"String.c"
// GNU C (GCC) version 4.8.5 20150623 (Red Hat 4.8.5-16) (aarch64-linux-gnu)
//	compiled by GNU C version 4.8.5 20150623 (Red Hat 4.8.5-11), GMP version 6.0.0, MPFR version 3.1.1, MPC version 1.0.1
// GGC heuristics: --param ggc-min-expand=97 --param ggc-min-heapsize=127009
// options passed:  -fpreprocessed String.i -mcmodel=large -mlittle-endian
// -auxbase-strip /root/next-loader/src/edk2/UDK2018/MyWorkSpace/Build/MdeModule/RELEASE_GCC49/AARCH64/MdePkg/Library/BaseLib/BaseLib/OUTPUT/./String.obj
// -g -g -Os -Wall -Werror -Wno-array-bounds -Wno-address
// -Wno-unused-but-set-variable -fshort-wchar -fno-strict-aliasing
// -fno-short-enums -fverbose-asm -fsigned-char -ffunction-sections
// -fdata-sections -fomit-frame-pointer -fno-builtin
// options enabled:  -faggressive-loop-optimizations
// -fasynchronous-unwind-tables -fauto-inc-dec -fbranch-count-reg
// -fcaller-saves -fcombine-stack-adjustments -fcommon -fcompare-elim
// -fcprop-registers -fcrossjumping -fcse-follow-jumps -fdata-sections
// -fdefer-pop -fdelete-null-pointer-checks -fdevirtualize -fdwarf2-cfi-asm
// -fearly-inlining -feliminate-unused-debug-types
// -fexpensive-optimizations -fforward-propagate -ffunction-cse
// -ffunction-sections -fgcse -fgcse-lm -fgnu-runtime -fgnu-unique
// -fguess-branch-probability -fhoist-adjacent-loads -fident
// -fif-conversion -fif-conversion2 -findirect-inlining -finline
// -finline-atomics -finline-functions -finline-functions-called-once
// -finline-small-functions -fipa-cp -fipa-profile -fipa-pure-const
// -fipa-reference -fipa-sra -fira-hoist-pressure -fira-share-save-slots
// -fira-share-spill-slots -fivopts -fkeep-static-consts
// -fleading-underscore -fmath-errno -fmerge-constants
// -fmerge-debug-strings -fmove-loop-invariants -fomit-frame-pointer
// -foptimize-register-move -foptimize-sibling-calls -fpartial-inlining
// -fpeephole -fpeephole2 -fprefetch-loop-arrays -freg-struct-return
// -fregmove -freorder-blocks -freorder-functions -frerun-cse-after-loop
// -fsched-critical-path-heuristic -fsched-dep-count-heuristic
// -fsched-group-heuristic -fsched-interblock -fsched-last-insn-heuristic
// -fsched-rank-heuristic -fsched-spec -fsched-spec-insn-heuristic
// -fsched-stalled-insns-dep -fschedule-insns2 -fsection-anchors
// -fshow-column -fshrink-wrap -fsigned-zeros -fsplit-ivs-in-unroller
// -fsplit-wide-types -fstrict-overflow -fstrict-volatile-bitfields
// -fsync-libcalls -fthread-jumps -ftoplevel-reorder -ftrapping-math
// -ftree-bit-ccp -ftree-builtin-call-dce -ftree-ccp -ftree-ch
// -ftree-coalesce-vars -ftree-copy-prop -ftree-copyrename -ftree-cselim
// -ftree-dce -ftree-dominator-opts -ftree-dse -ftree-forwprop -ftree-fre
// -ftree-loop-if-convert -ftree-loop-im -ftree-loop-ivcanon
// -ftree-loop-optimize -ftree-parallelize-loops= -ftree-phiprop -ftree-pre
// -ftree-pta -ftree-reassoc -ftree-scev-cprop -ftree-sink
// -ftree-slp-vectorize -ftree-slsr -ftree-sra -ftree-switch-conversion
// -ftree-tail-merge -ftree-ter -ftree-vect-loop-version -ftree-vrp
// -funit-at-a-time -funwind-tables -fvar-tracking
// -fvar-tracking-assignments -fverbose-asm -fzero-initialized-in-bss
// -mglibc -mlittle-endian -momit-leaf-frame-pointer

	.text
.Ltext0:
	.section	.text.StrLen,"ax",%progbits
	.align	2
	.global	StrLen
	.type	StrLen, %function
StrLen:
.LFB0:
	.file 1 "/root/next-loader/src/edk2/UDK2018/MyWorkSpace/MdePkg/Library/BaseLib/String.c"
	.loc 1 169 0
	.cfi_startproc
.LVL0:
	sub	sp, sp, #64	//,,
	.cfi_def_cfa_offset 64
	stp	x19, x20, [sp]	//,,
	stp	x21, x22, [sp,16]	//,,
	stp	x23, x24, [sp,32]	//,,
	str	x30, [sp,48]	//,
	.cfi_offset 19, -64
	.cfi_offset 20, -56
	.cfi_offset 21, -48
	.cfi_offset 22, -40
	.cfi_offset 23, -32
	.cfi_offset 24, -24
	.cfi_offset 30, -16
	.loc 1 169 0
	mov	x20, x0	// String, String
	.loc 1 172 0
	bl	DebugAssertEnabled	//
.LVL1:
	uxtb	w0, w0	// D.3378,
	cbz	w0, .L2	// D.3378,
	.loc 1 172 0 is_stmt 0 discriminator 1
	cbnz	x20, .L2	// String,
	ldr	x0, .LC3	//,
	ldr	x2, .LC5	//,
	mov	x1, 172	//,
	bl	DebugAssert	//
.LVL2:
.L2:
	.loc 1 173 0 is_stmt 1
	bl	DebugAssertEnabled	//
.LVL3:
	uxtb	w0, w0	// D.3378,
	cbz	w0, .L3	// D.3378,
	.loc 1 173 0 is_stmt 0 discriminator 1
	tbz	x20, 0, .L3	// String,,
	ldr	x0, .LC3	//,
	ldr	x2, .LC7	//,
	mov	x1, 173	//,
	bl	DebugAssert	//
.LVL4:
.L3:
	.loc 1 180 0 is_stmt 1 discriminator 1
	ldr	x22, .LC8	// tmp123,
	.loc 1 181 0 discriminator 1
	ldr	x23, .LC3	// tmp124,
	ldr	x24, .LC10	// tmp125,
	.loc 1 169 0 discriminator 1
	mov	x19, 0	// Length,
.LVL5:
.L4:
	.loc 1 175 0 discriminator 1
	ldrh	w0, [x20,x19,lsl 1]	// MEM[base: String_10(D), index: _26, offset: 0B], MEM[base: String_10(D), index: _26, offset: 0B]
	cbz	w0, .L22	// MEM[base: String_10(D), index: _26, offset: 0B],
	.loc 1 180 0
	ldr	w21, [x22]	//, _gPcd_FixedAtBuild_PcdMaximumUnicodeStringLength
	cbz	w21, .L6	// _gPcd_FixedAtBuild_PcdMaximumUnicodeStringLength.1,
	.loc 1 181 0
	bl	DebugAssertEnabled	//
.LVL6:
	uxtb	w0, w0	// D.3378,
	cbz	w0, .L6	// D.3378,
	.loc 1 181 0 is_stmt 0 discriminator 1
	cmp	x19, x21, uxtw	// Length, _gPcd_FixedAtBuild_PcdMaximumUnicodeStringLength.1
	bcc	.L6	//,
	mov	x0, x23	//, tmp124
	mov	x1, 181	//,
	mov	x2, x24	//, tmp125
	bl	DebugAssert	//
.LVL7:
.L6:
	.loc 1 175 0 is_stmt 1
	add	x19, x19, 1	// Length, Length,
.LVL8:
	b	.L4	//
.LVL9:
.L22:
	.loc 1 185 0
	mov	x0, x19	//, Length
	ldp	x21, x22, [sp,16]	//,,
	ldp	x19, x20, [sp]	//,,
.LVL10:
	ldp	x23, x24, [sp,32]	//,,
	ldr	x30, [sp,48]	//,
	add	sp, sp, 64	//,,
	.cfi_restore 30
	.cfi_restore 24
	.cfi_restore 23
	.cfi_restore 22
	.cfi_restore 21
	.cfi_restore 20
	.cfi_restore 19
	.cfi_def_cfa_offset 0
	ret
	.cfi_endproc
.LFE0:
	.size	StrLen, .-StrLen
	.align	3
.LC3:
	.xword	.LC2
	.align	3
.LC5:
	.xword	.LC4
	.align	3
.LC7:
	.xword	.LC6
	.align	3
.LC8:
	.xword	_gPcd_FixedAtBuild_PcdMaximumUnicodeStringLength
	.align	3
.LC10:
	.xword	.LC9
	.section	.text.StrSize,"ax",%progbits
	.align	2
	.global	StrSize
	.type	StrSize, %function
StrSize:
.LFB1:
	.loc 1 210 0
	.cfi_startproc
.LVL11:
	sub	sp, sp, #16	//,,
	.cfi_def_cfa_offset 16
	str	x30, [sp]	//,
	.cfi_offset 30, -16
	.loc 1 211 0
	bl	StrLen	//
.LVL12:
	add	x0, x0, 1	// D.3388,,
	.loc 1 212 0
	lsl	x0, x0, 1	//, D.3388,
	ldr	x30, [sp]	//,
	add	sp, sp, 16	//,,
	.cfi_restore 30
	.cfi_def_cfa_offset 0
	ret
	.cfi_endproc
.LFE1:
	.size	StrSize, .-StrSize
	.section	.text.StrCmp,"ax",%progbits
	.align	2
	.global	StrCmp
	.type	StrCmp, %function
StrCmp:
.LFB2:
	.loc 1 248 0
	.cfi_startproc
.LVL13:
	sub	sp, sp, #32	//,,
	.cfi_def_cfa_offset 32
	stp	x19, x20, [sp]	//,,
	str	x30, [sp,16]	//,
	.cfi_offset 19, -32
	.cfi_offset 20, -24
	.cfi_offset 30, -16
	.loc 1 248 0
	mov	x20, x0	// FirstString, FirstString
	mov	x19, x1	// SecondString, SecondString
	.loc 1 252 0
	bl	DebugAssertEnabled	//
.LVL14:
	uxtb	w0, w0	// D.3406,
	cbz	w0, .L26	// D.3406,
	.loc 1 252 0 is_stmt 0 discriminator 1
	mov	x0, x20	//, FirstString
	bl	StrSize	//
.LVL15:
	cbnz	x0, .L26	//,
	ldr	x0, .LC11	//,
	ldr	x2, .LC13	//,
	mov	x1, 252	//,
	bl	DebugAssert	//
.LVL16:
.L26:
	.loc 1 253 0 is_stmt 1
	bl	DebugAssertEnabled	//
.LVL17:
	uxtb	w0, w0	// D.3406,
	cbz	w0, .L29	// D.3406,
	.loc 1 253 0 is_stmt 0 discriminator 1
	mov	x0, x19	//, SecondString
	bl	StrSize	//
.LVL18:
	cbnz	x0, .L29	//,
	ldr	x0, .LC11	//,
	ldr	x2, .LC15	//,
	mov	x1, 253	//,
	bl	DebugAssert	//
.LVL19:
.L29:
	.loc 1 248 0 is_stmt 1 discriminator 1
	mov	x2, 0	// ivtmp.60,
.LVL20:
.L31:
	.loc 1 255 0 discriminator 1
	ldrh	w1, [x20,x2]	// D.3408, MEM[base: FirstString_8(D), index: ivtmp.60_39, offset: 0B]
	add	x0, x19, x2	// D.3412, SecondString, ivtmp.60
.LVL21:
	cbz	w1, .L32	// D.3408,
	add	x2, x2, 2	// ivtmp.60, ivtmp.60,
.LVL22:
	add	x3, x19, x2	// D.3411, SecondString, ivtmp.60
	.loc 1 255 0 is_stmt 0 discriminator 2
	ldrh	w3, [x3,-2]	// MEM[base: _34, offset: -2B], MEM[base: _34, offset: -2B]
	cmp	w3, w1	// MEM[base: _34, offset: -2B], D.3408
	beq	.L31	//,
.LVL23:
.L32:
	.loc 1 259 0 is_stmt 1
	ldrh	w0, [x0]	// D.3409, *SecondString_40
.LVL24:
	.loc 1 260 0
	ldp	x19, x20, [sp]	//,,
	.loc 1 259 0
	sub	w0, w1, w0	// D.3409, D.3408, D.3409
	.loc 1 260 0
	sxtw	x0, w0	//, D.3409
	ldr	x30, [sp,16]	//,
	add	sp, sp, 32	//,,
	.cfi_restore 30
	.cfi_restore 20
	.cfi_restore 19
	.cfi_def_cfa_offset 0
	ret
	.cfi_endproc
.LFE2:
	.size	StrCmp, .-StrCmp
	.align	3
.LC11:
	.xword	.LC2
	.align	3
.LC13:
	.xword	.LC12
	.align	3
.LC15:
	.xword	.LC14
	.section	.text.StrnCmp,"ax",%progbits
	.align	2
	.global	StrnCmp
	.type	StrnCmp, %function
StrnCmp:
.LFB3:
	.loc 1 301 0
	.cfi_startproc
.LVL25:
	sub	sp, sp, #48	//,,
	.cfi_def_cfa_offset 48
	stp	x19, x20, [sp]	//,,
	stp	x21, x22, [sp,16]	//,,
	str	x30, [sp,32]	//,
	.cfi_offset 19, -48
	.cfi_offset 20, -40
	.cfi_offset 21, -32
	.cfi_offset 22, -24
	.cfi_offset 30, -16
	.loc 1 301 0
	mov	x22, x0	// FirstString, FirstString
	mov	x20, x1	// SecondString, SecondString
	mov	x19, x2	// Length, Length
	.loc 1 303 0
	mov	x0, 0	// D.3437,
.LVL26:
	.loc 1 302 0
	cbz	x2, .L38	// Length,
	.loc 1 310 0
	bl	DebugAssertEnabled	//
.LVL27:
	uxtb	w0, w0	// D.3438,
	cbz	w0, .L40	// D.3438,
	.loc 1 310 0 is_stmt 0 discriminator 1
	mov	x0, x22	//, FirstString
	bl	StrSize	//
.LVL28:
	cbnz	x0, .L40	//,
	ldr	x0, .LC16	//,
	ldr	x2, .LC17	//,
	mov	x1, 310	//,
	bl	DebugAssert	//
.LVL29:
.L40:
	.loc 1 311 0 is_stmt 1
	bl	DebugAssertEnabled	//
.LVL30:
	uxtb	w0, w0	// D.3438,
	cbz	w0, .L43	// D.3438,
	.loc 1 311 0 is_stmt 0 discriminator 1
	mov	x0, x20	//, SecondString
	bl	StrSize	//
.LVL31:
	cbnz	x0, .L43	//,
	ldr	x0, .LC16	//,
	ldr	x2, .LC18	//,
	mov	x1, 311	//,
	bl	DebugAssert	//
.LVL32:
.L43:
	.loc 1 313 0 is_stmt 1
	ldr	x0, .LC19	// tmp101,
	ldr	w21, [x0]	//, _gPcd_FixedAtBuild_PcdMaximumUnicodeStringLength
	cbz	w21, .L46	// _gPcd_FixedAtBuild_PcdMaximumUnicodeStringLength.2,
	.loc 1 314 0
	bl	DebugAssertEnabled	//
.LVL33:
	uxtb	w0, w0	// D.3438,
	cbz	w0, .L46	// D.3438,
	.loc 1 314 0 is_stmt 0 discriminator 1
	cmp	x19, x21, uxtw	// Length, _gPcd_FixedAtBuild_PcdMaximumUnicodeStringLength.2
	bls	.L46	//,
	ldr	x0, .LC16	//,
	ldr	x2, .LC21	//,
	mov	x1, 314	//,
	bl	DebugAssert	//
.LVL34:
.L46:
	.loc 1 301 0 is_stmt 1 discriminator 1
	mov	x2, 0	// ivtmp.76,
.LVL35:
.L48:
	.loc 1 317 0 discriminator 1
	ldrh	w1, [x22,x2]	// D.3440, MEM[base: FirstString_13(D), index: ivtmp.76_45, offset: 0B]
	add	x3, x20, x2	// D.3441, SecondString, ivtmp.76
.LVL36:
	cbz	w1, .L49	// D.3440,
	.loc 1 318 0 discriminator 2
	ldrh	w0, [x20,x2]	// D.3440, MEM[base: SecondString_19(D), index: ivtmp.76_45, offset: 0B]
	.loc 1 317 0 discriminator 2
	cbz	w0, .L49	// D.3440,
	.loc 1 318 0
	cmp	w1, w0	// D.3440, D.3440
	bne	.L49	//,
	.loc 1 319 0
	cmp	x19, 1	// Length,
	add	x2, x2, 2	// ivtmp.76, ivtmp.76,
.LVL37:
	beq	.L49	//,
.LVL38:
	.loc 1 323 0
	sub	x19, x19, #1	// Length, Length,
.LVL39:
	b	.L48	//
.LVL40:
.L49:
	.loc 1 326 0
	ldrh	w0, [x3]	// D.3442, *SecondString_46
	sub	w1, w1, w0	// D.3442, D.3440, D.3442
	sxtw	x0, w1	// D.3437, D.3442
.LVL41:
.L38:
	.loc 1 327 0
	ldp	x19, x20, [sp]	//,,
.LVL42:
	ldp	x21, x22, [sp,16]	//,,
	ldr	x30, [sp,32]	//,
	add	sp, sp, 48	//,,
	.cfi_restore 30
	.cfi_restore 22
	.cfi_restore 21
	.cfi_restore 20
	.cfi_restore 19
	.cfi_def_cfa_offset 0
	ret
	.cfi_endproc
.LFE3:
	.size	StrnCmp, .-StrnCmp
	.align	3
.LC16:
	.xword	.LC2
	.align	3
.LC17:
	.xword	.LC12
	.align	3
.LC18:
	.xword	.LC14
	.align	3
.LC19:
	.xword	_gPcd_FixedAtBuild_PcdMaximumUnicodeStringLength
	.align	3
.LC21:
	.xword	.LC20
	.section	.text.StrStr,"ax",%progbits
	.align	2
	.global	StrStr
	.type	StrStr, %function
StrStr:
.LFB4:
	.loc 1 477 0
	.cfi_startproc
.LVL43:
	sub	sp, sp, #32	//,,
	.cfi_def_cfa_offset 32
	stp	x19, x20, [sp]	//,,
	str	x30, [sp,16]	//,
	.cfi_offset 19, -32
	.cfi_offset 20, -24
	.cfi_offset 30, -16
	.loc 1 477 0
	mov	x19, x0	// String, String
	mov	x20, x1	// SearchString, SearchString
	.loc 1 485 0
	bl	DebugAssertEnabled	//
.LVL44:
	uxtb	w0, w0	// D.3471,
	cbz	w0, .L64	// D.3471,
	.loc 1 485 0 is_stmt 0 discriminator 1
	mov	x0, x19	//, String
	bl	StrSize	//
.LVL45:
	cbnz	x0, .L64	//,
	ldr	x0, .LC22	//,
	ldr	x2, .LC24	//,
	mov	x1, 485	//,
	bl	DebugAssert	//
.LVL46:
.L64:
	.loc 1 486 0 is_stmt 1
	bl	DebugAssertEnabled	//
.LVL47:
	uxtb	w0, w0	// D.3471,
	cbz	w0, .L67	// D.3471,
	.loc 1 486 0 is_stmt 0 discriminator 1
	mov	x0, x20	//, SearchString
	bl	StrSize	//
.LVL48:
	cbnz	x0, .L67	//,
	ldr	x0, .LC22	//,
	ldr	x2, .LC26	//,
	mov	x1, 486	//,
	bl	DebugAssert	//
.LVL49:
.L67:
	.loc 1 488 0 is_stmt 1
	ldrh	w1, [x20]	// *SearchString_16(D), *SearchString_16(D)
	.loc 1 489 0
	mov	x0, x19	// D.3470, String
	.loc 1 488 0
	cbz	w1, .L69	// *SearchString_16(D),
.L70:
	.loc 1 492 0 discriminator 1
	ldrh	w0, [x19]	// MEM[base: String_2, offset: 0B], MEM[base: String_2, offset: 0B]
	cbz	w0, .L77	// MEM[base: String_2, offset: 0B],
	.loc 1 492 0 is_stmt 0
	mov	x2, 0	// ivtmp.98,
.LVL50:
.L73:
	.loc 1 496 0 is_stmt 1 discriminator 1
	ldrh	w0, [x19,x2]	// D.3473, MEM[base: String_2, index: ivtmp.98_29, offset: 0B]
	ldrh	w1, [x20,x2]	// D.3473, MEM[base: SearchString_16(D), index: ivtmp.98_29, offset: 0B]
	cmp	w0, w1	// D.3473, D.3473
	bne	.L71	//,
	add	x2, x2, 2	// ivtmp.98, ivtmp.98,
.LVL51:
	.loc 1 497 0
	cbnz	w0, .L73	// D.3473,
	b	.L75	//
.LVL52:
.L71:
	.loc 1 502 0
	cbz	w1, .L75	// D.3473,
	.loc 1 506 0
	cbz	w0, .L77	// D.3473,
	.loc 1 510 0
	add	x19, x19, 2	// String, String,
.LVL53:
	b	.L70	//
.LVL54:
.L75:
	mov	x0, x19	// D.3470, String
	b	.L69	//
.L77:
	.loc 1 507 0
	mov	x0, 0	// D.3470,
.L69:
	.loc 1 514 0
	ldp	x19, x20, [sp]	//,,
.LVL55:
	ldr	x30, [sp,16]	//,
	add	sp, sp, 32	//,,
	.cfi_restore 30
	.cfi_restore 20
	.cfi_restore 19
	.cfi_def_cfa_offset 0
	ret
	.cfi_endproc
.LFE4:
	.size	StrStr, .-StrStr
	.align	3
.LC22:
	.xword	.LC2
	.align	3
.LC24:
	.xword	.LC23
	.align	3
.LC26:
	.xword	.LC25
	.section	.text.InternalIsDecimalDigitCharacter,"ax",%progbits
	.align	2
	.global	InternalIsDecimalDigitCharacter
	.type	InternalIsDecimalDigitCharacter, %function
InternalIsDecimalDigitCharacter:
.LFB5:
	.loc 1 534 0
	.cfi_startproc
.LVL56:
	.loc 1 534 0
	uxth	w0, w0	// Char, Char
	.loc 1 535 0
	sub	w0, w0, #48	// tmp79, Char,
.LVL57:
	uxth	w0, w0	// tmp80, tmp79
.LVL58:
	cmp	w0, 9	// tmp80,
	.loc 1 536 0
	cset	w0, ls	//,
	ret
	.cfi_endproc
.LFE5:
	.size	InternalIsDecimalDigitCharacter, .-InternalIsDecimalDigitCharacter
	.section	.text.InternalCharToUpper,"ax",%progbits
	.align	2
	.global	InternalCharToUpper
	.type	InternalCharToUpper, %function
InternalCharToUpper:
.LFB6:
	.loc 1 558 0
	.cfi_startproc
.LVL59:
	.loc 1 558 0
	uxth	w0, w0	// Char, Char
	.loc 1 559 0
	sub	w1, w0, #97	// tmp77, Char,
	uxth	w1, w1	// tmp78, tmp77
	cmp	w1, 25	// tmp78,
	bhi	.L81	//,
	.loc 1 560 0
	sub	w0, w0, #32	// tmp79, D.3483,
.LVL60:
	uxth	w0, w0	// D.3483, tmp79
.LVL61:
.L81:
	.loc 1 564 0
	ret
	.cfi_endproc
.LFE6:
	.size	InternalCharToUpper, .-InternalCharToUpper
	.section	.text.InternalHexCharToUintn,"ax",%progbits
	.align	2
	.global	InternalHexCharToUintn
	.type	InternalHexCharToUintn, %function
InternalHexCharToUintn:
.LFB7:
	.loc 1 584 0
	.cfi_startproc
.LVL62:
	uxth	w0, w0	// Char, Char
.LVL63:
.LBB10:
.LBB11:
	.loc 1 535 0
	sub	w1, w0, #48	// tmp82, Char,
.LBE11:
.LBE10:
	.loc 1 584 0
	sub	sp, sp, #16	//,,
	.cfi_def_cfa_offset 16
	.loc 1 585 0
	uxth	w2, w1	// tmp83, tmp82
	.loc 1 584 0
	str	x30, [sp]	//,
	.cfi_offset 30, -16
	.loc 1 585 0
	cmp	w2, 9	// tmp83,
	bhi	.L84	//,
	.loc 1 586 0
	sxtw	x0, w1	// D.3487, tmp82
.LVL64:
	b	.L85	//
.LVL65:
.L84:
	.loc 1 589 0
	bl	InternalCharToUpper	//
.LVL66:
	uxth	w0, w0	// D.3489,
	sub	w0, w0, #55	// D.3488, D.3489,
	sxtw	x0, w0	// D.3487, D.3488
.L85:
	.loc 1 590 0
	ldr	x30, [sp]	//,
	add	sp, sp, 16	//,,
	.cfi_restore 30
	.cfi_def_cfa_offset 0
	ret
	.cfi_endproc
.LFE7:
	.size	InternalHexCharToUintn, .-InternalHexCharToUintn
	.section	.text.InternalIsHexaDecimalDigitCharacter,"ax",%progbits
	.align	2
	.global	InternalIsHexaDecimalDigitCharacter
	.type	InternalIsHexaDecimalDigitCharacter, %function
InternalIsHexaDecimalDigitCharacter:
.LFB8:
	.loc 1 611 0
	.cfi_startproc
.LVL67:
	.loc 1 611 0
	uxth	w1, w0	// Char, Char
.LVL68:
.LBB12:
.LBB13:
	.loc 1 535 0
	sub	w0, w1, #48	// tmp82, Char,
.LVL69:
.LBE13:
.LBE12:
	.loc 1 614 0
	uxth	w2, w0	// tmp83, tmp82
	cmp	w2, 9	// tmp83,
	mov	w0, 1	// iftmp.3,
	bls	.L87	//,
	.loc 1 613 0 discriminator 2
	and	w1, w1, -33	// tmp84, Char,
.LVL70:
	sub	w1, w1, #65	// tmp86, tmp84,
	uxth	w1, w1	// tmp88, tmp86
	cmp	w1, 5	// tmp88,
	cset	w0, ls	// iftmp.3,
.L87:
	.loc 1 616 0
	ret
	.cfi_endproc
.LFE8:
	.size	InternalIsHexaDecimalDigitCharacter, .-InternalIsHexaDecimalDigitCharacter
	.section	.text.StrDecimalToUintn,"ax",%progbits
	.align	2
	.global	StrDecimalToUintn
	.type	StrDecimalToUintn, %function
StrDecimalToUintn:
.LFB9:
	.loc 1 657 0
	.cfi_startproc
.LVL71:
	sub	sp, sp, #32	//,,
	.cfi_def_cfa_offset 32
	.loc 1 660 0
	add	x2, sp, 24	//,,
	mov	x1, 0	//,
	.loc 1 657 0
	str	x30, [sp]	//,
	.cfi_offset 30, -32
	.loc 1 660 0
	bl	StrDecimalToUintnS	//
.LVL72:
	.loc 1 662 0
	ldr	x0, [sp,24]	//, Result
	ldr	x30, [sp]	//,
	add	sp, sp, 32	//,,
	.cfi_restore 30
	.cfi_def_cfa_offset 0
	ret
	.cfi_endproc
.LFE9:
	.size	StrDecimalToUintn, .-StrDecimalToUintn
	.section	.text.StrDecimalToUint64,"ax",%progbits
	.align	2
	.global	StrDecimalToUint64
	.type	StrDecimalToUint64, %function
StrDecimalToUint64:
.LFB10:
	.loc 1 704 0
	.cfi_startproc
.LVL73:
	sub	sp, sp, #32	//,,
	.cfi_def_cfa_offset 32
	.loc 1 707 0
	add	x2, sp, 24	//,,
	mov	x1, 0	//,
	.loc 1 704 0
	str	x30, [sp]	//,
	.cfi_offset 30, -32
	.loc 1 707 0
	bl	StrDecimalToUint64S	//
.LVL74:
	.loc 1 709 0
	ldr	x0, [sp,24]	//, Result
	ldr	x30, [sp]	//,
	add	sp, sp, 32	//,,
	.cfi_restore 30
	.cfi_def_cfa_offset 0
	ret
	.cfi_endproc
.LFE10:
	.size	StrDecimalToUint64, .-StrDecimalToUint64
	.section	.text.StrHexToUintn,"ax",%progbits
	.align	2
	.global	StrHexToUintn
	.type	StrHexToUintn, %function
StrHexToUintn:
.LFB11:
	.loc 1 751 0
	.cfi_startproc
.LVL75:
	sub	sp, sp, #32	//,,
	.cfi_def_cfa_offset 32
	.loc 1 754 0
	add	x2, sp, 24	//,,
	mov	x1, 0	//,
	.loc 1 751 0
	str	x30, [sp]	//,
	.cfi_offset 30, -32
	.loc 1 754 0
	bl	StrHexToUintnS	//
.LVL76:
	.loc 1 756 0
	ldr	x0, [sp,24]	//, Result
	ldr	x30, [sp]	//,
	add	sp, sp, 32	//,,
	.cfi_restore 30
	.cfi_def_cfa_offset 0
	ret
	.cfi_endproc
.LFE11:
	.size	StrHexToUintn, .-StrHexToUintn
	.section	.text.StrHexToUint64,"ax",%progbits
	.align	2
	.global	StrHexToUint64
	.type	StrHexToUint64, %function
StrHexToUint64:
.LFB12:
	.loc 1 799 0
	.cfi_startproc
.LVL77:
	sub	sp, sp, #32	//,,
	.cfi_def_cfa_offset 32
	.loc 1 802 0
	add	x2, sp, 24	//,,
	mov	x1, 0	//,
	.loc 1 799 0
	str	x30, [sp]	//,
	.cfi_offset 30, -32
	.loc 1 802 0
	bl	StrHexToUint64S	//
.LVL78:
	.loc 1 804 0
	ldr	x0, [sp,24]	//, Result
	ldr	x30, [sp]	//,
	add	sp, sp, 32	//,,
	.cfi_restore 30
	.cfi_def_cfa_offset 0
	ret
	.cfi_endproc
.LFE12:
	.size	StrHexToUint64, .-StrHexToUint64
	.section	.text.InternalAsciiIsDecimalDigitCharacter,"ax",%progbits
	.align	2
	.global	InternalAsciiIsDecimalDigitCharacter
	.type	InternalAsciiIsDecimalDigitCharacter, %function
InternalAsciiIsDecimalDigitCharacter:
.LFB13:
	.loc 1 824 0
	.cfi_startproc
.LVL79:
	.loc 1 824 0
	sxtb	w0, w0	// Char, Char
	.loc 1 825 0
	sub	w0, w0, #48	// tmp81, Char,
.LVL80:
	uxtb	w0, w0	// tmp82, tmp81
.LVL81:
	cmp	w0, 9	// tmp82,
	.loc 1 826 0
	cset	w0, ls	//,
	ret
	.cfi_endproc
.LFE13:
	.size	InternalAsciiIsDecimalDigitCharacter, .-InternalAsciiIsDecimalDigitCharacter
	.section	.text.InternalAsciiIsHexaDecimalDigitCharacter,"ax",%progbits
	.align	2
	.global	InternalAsciiIsHexaDecimalDigitCharacter
	.type	InternalAsciiIsHexaDecimalDigitCharacter, %function
InternalAsciiIsHexaDecimalDigitCharacter:
.LFB14:
	.loc 1 847 0
	.cfi_startproc
.LVL82:
.LBB14:
.LBB15:
	.loc 1 825 0
	uxtb	w1, w0	// Char.4, Char
	sub	w0, w1, #48	// tmp83, Char.4,
.LVL83:
.LBE15:
.LBE14:
	.loc 1 850 0
	uxtb	w2, w0	// tmp84, tmp83
	cmp	w2, 9	// tmp84,
	mov	w0, 1	// iftmp.5,
	bls	.L95	//,
	.loc 1 849 0 discriminator 2
	and	w1, w1, -33	// tmp85, Char.4,
.LVL84:
	sub	w1, w1, #65	// tmp87, tmp85,
	uxtb	w1, w1	// tmp89, tmp87
	cmp	w1, 5	// tmp89,
	cset	w0, ls	// iftmp.5,
.L95:
	.loc 1 852 0
	ret
	.cfi_endproc
.LFE14:
	.size	InternalAsciiIsHexaDecimalDigitCharacter, .-InternalAsciiIsHexaDecimalDigitCharacter
	.section	.text.AsciiStrLen,"ax",%progbits
	.align	2
	.global	AsciiStrLen
	.type	AsciiStrLen, %function
AsciiStrLen:
.LFB15:
	.loc 1 1079 0
	.cfi_startproc
.LVL85:
	sub	sp, sp, #64	//,,
	.cfi_def_cfa_offset 64
	stp	x21, x22, [sp,16]	//,,
	stp	x19, x20, [sp]	//,,
	stp	x23, x24, [sp,32]	//,,
	str	x30, [sp,48]	//,
	.cfi_offset 21, -48
	.cfi_offset 22, -40
	.cfi_offset 19, -64
	.cfi_offset 20, -56
	.cfi_offset 23, -32
	.cfi_offset 24, -24
	.cfi_offset 30, -16
	.loc 1 1079 0
	mov	x21, x0	// String, String
	.loc 1 1082 0
	bl	DebugAssertEnabled	//
.LVL86:
	uxtb	w0, w0	// D.3528,
	cbz	w0, .L98	// D.3528,
	.loc 1 1082 0 is_stmt 0 discriminator 1
	cbnz	x21, .L98	// String,
	ldr	x0, .LC29	//,
	ldr	x2, .LC30	//,
	mov	x1, 1082	//,
	bl	DebugAssert	//
.LVL87:
.L98:
	.loc 1 1089 0 is_stmt 1 discriminator 1
	ldr	x22, .LC31	// tmp114,
	.loc 1 1090 0 discriminator 1
	ldr	x23, .LC29	// tmp115,
	ldr	x24, .LC33	// tmp116,
	.loc 1 1079 0 discriminator 1
	mov	x19, 0	// Length,
.LVL88:
.L99:
	.loc 1 1084 0 discriminator 1
	ldrsb	w0, [x21,x19]	// MEM[base: String_9(D), index: Length_2, offset: 0B], MEM[base: String_9(D), index: Length_2, offset: 0B]
	cbz	w0, .L110	// MEM[base: String_9(D), index: Length_2, offset: 0B],
	.loc 1 1089 0
	ldr	w20, [x22]	//, _gPcd_FixedAtBuild_PcdMaximumAsciiStringLength
	cbz	w20, .L101	// _gPcd_FixedAtBuild_PcdMaximumAsciiStringLength.7,
	.loc 1 1090 0
	bl	DebugAssertEnabled	//
.LVL89:
	uxtb	w0, w0	// D.3528,
	cbz	w0, .L101	// D.3528,
	.loc 1 1090 0 is_stmt 0 discriminator 1
	cmp	x19, x20, uxtw	// Length, _gPcd_FixedAtBuild_PcdMaximumAsciiStringLength.7
	bcc	.L101	//,
	mov	x0, x23	//, tmp115
	mov	x1, 1090	//,
	mov	x2, x24	//, tmp116
	bl	DebugAssert	//
.LVL90:
.L101:
	.loc 1 1084 0 is_stmt 1
	add	x19, x19, 1	// Length, Length,
.LVL91:
	b	.L99	//
.L110:
	.loc 1 1094 0
	mov	x0, x19	//, Length
	ldp	x21, x22, [sp,16]	//,,
.LVL92:
	ldp	x19, x20, [sp]	//,,
.LVL93:
	ldp	x23, x24, [sp,32]	//,,
	ldr	x30, [sp,48]	//,
	add	sp, sp, 64	//,,
	.cfi_restore 30
	.cfi_restore 24
	.cfi_restore 23
	.cfi_restore 22
	.cfi_restore 21
	.cfi_restore 20
	.cfi_restore 19
	.cfi_def_cfa_offset 0
	ret
	.cfi_endproc
.LFE15:
	.size	AsciiStrLen, .-AsciiStrLen
	.align	3
.LC29:
	.xword	.LC2
	.align	3
.LC30:
	.xword	.LC4
	.align	3
.LC31:
	.xword	_gPcd_FixedAtBuild_PcdMaximumAsciiStringLength
	.align	3
.LC33:
	.xword	.LC32
	.section	.text.AsciiStrSize,"ax",%progbits
	.align	2
	.global	AsciiStrSize
	.type	AsciiStrSize, %function
AsciiStrSize:
.LFB16:
	.loc 1 1118 0
	.cfi_startproc
.LVL94:
	sub	sp, sp, #16	//,,
	.cfi_def_cfa_offset 16
	str	x30, [sp]	//,
	.cfi_offset 30, -16
	.loc 1 1119 0
	bl	AsciiStrLen	//
.LVL95:
	.loc 1 1120 0
	add	x0, x0, 1	//,,
	ldr	x30, [sp]	//,
	add	sp, sp, 16	//,,
	.cfi_restore 30
	.cfi_def_cfa_offset 0
	ret
	.cfi_endproc
.LFE16:
	.size	AsciiStrSize, .-AsciiStrSize
	.section	.text.AsciiStrCmp,"ax",%progbits
	.align	2
	.global	AsciiStrCmp
	.type	AsciiStrCmp, %function
AsciiStrCmp:
.LFB17:
	.loc 1 1154 0
	.cfi_startproc
.LVL96:
	sub	sp, sp, #32	//,,
	.cfi_def_cfa_offset 32
	stp	x19, x20, [sp]	//,,
	str	x30, [sp,16]	//,
	.cfi_offset 19, -32
	.cfi_offset 20, -24
	.cfi_offset 30, -16
	.loc 1 1154 0
	mov	x20, x0	// FirstString, FirstString
	mov	x19, x1	// SecondString, SecondString
	.loc 1 1158 0
	bl	DebugAssertEnabled	//
.LVL97:
	uxtb	w0, w0	// D.3550,
	cbz	w0, .L114	// D.3550,
	.loc 1 1158 0 is_stmt 0 discriminator 1
	mov	x0, x20	//, FirstString
	bl	AsciiStrSize	//
.LVL98:
	cbnz	x0, .L114	//,
	ldr	x0, .LC34	//,
	ldr	x2, .LC36	//,
	mov	x1, 1158	//,
	bl	DebugAssert	//
.LVL99:
.L114:
	.loc 1 1159 0 is_stmt 1
	bl	DebugAssertEnabled	//
.LVL100:
	uxtb	w0, w0	// D.3550,
	cbz	w0, .L117	// D.3550,
	.loc 1 1159 0 is_stmt 0 discriminator 1
	mov	x0, x19	//, SecondString
	bl	AsciiStrSize	//
.LVL101:
	cbnz	x0, .L117	//,
	ldr	x0, .LC34	//,
	ldr	x2, .LC38	//,
	mov	x1, 1159	//,
	bl	DebugAssert	//
.LVL102:
.L117:
	.loc 1 1154 0 is_stmt 1 discriminator 1
	mov	x2, 0	// ivtmp.149,
.LVL103:
.L119:
	.loc 1 1161 0 discriminator 1
	ldrsb	w1, [x20,x2]	// D.3552, MEM[base: FirstString_8(D), index: ivtmp.149_39, offset: 0B]
	add	x0, x19, x2	// D.3556, SecondString, ivtmp.149
.LVL104:
	cbz	w1, .L120	// D.3552,
	add	x2, x2, 1	// ivtmp.149, ivtmp.149,
.LVL105:
	add	x3, x19, x2	// D.3555, SecondString, ivtmp.149
	.loc 1 1161 0 is_stmt 0 discriminator 2
	ldrsb	w3, [x3,-1]	// MEM[base: _34, offset: -1B], MEM[base: _34, offset: -1B]
	cmp	w3, w1	// MEM[base: _34, offset: -1B], D.3552
	beq	.L119	//,
.LVL106:
.L120:
	.loc 1 1166 0 is_stmt 1
	ldrsb	w0, [x0]	// D.3553, *SecondString_40
.LVL107:
	.loc 1 1167 0
	ldp	x19, x20, [sp]	//,,
	.loc 1 1166 0
	sub	w0, w1, w0	// D.3553, D.3552, D.3553
	.loc 1 1167 0
	sxtw	x0, w0	//, D.3553
	ldr	x30, [sp,16]	//,
	add	sp, sp, 32	//,,
	.cfi_restore 30
	.cfi_restore 20
	.cfi_restore 19
	.cfi_def_cfa_offset 0
	ret
	.cfi_endproc
.LFE17:
	.size	AsciiStrCmp, .-AsciiStrCmp
	.align	3
.LC34:
	.xword	.LC2
	.align	3
.LC36:
	.xword	.LC35
	.align	3
.LC38:
	.xword	.LC37
	.section	.text.InternalBaseLibAsciiToUpper,"ax",%progbits
	.align	2
	.global	InternalBaseLibAsciiToUpper
	.type	InternalBaseLibAsciiToUpper, %function
InternalBaseLibAsciiToUpper:
.LFB18:
	.loc 1 1187 0
	.cfi_startproc
.LVL108:
	.loc 1 1187 0
	sxtb	w0, w0	// Chr, Chr
	.loc 1 1188 0
	uxtb	w1, w0	// Chr.9, Chr
	sub	w2, w1, #97	// tmp79, Chr.9,
	uxtb	w2, w2	// tmp80, tmp79
	cmp	w2, 25	// tmp80,
	bhi	.L126	//,
	.loc 1 1188 0 is_stmt 0 discriminator 1
	sub	w0, w1, #32	// tmp81, Chr.9,
.LVL109:
	sxtb	w0, w0	// iftmp.8, tmp81
.L126:
	.loc 1 1189 0 is_stmt 1 discriminator 3
	ret
	.cfi_endproc
.LFE18:
	.size	InternalBaseLibAsciiToUpper, .-InternalBaseLibAsciiToUpper
	.section	.text.InternalAsciiHexCharToUintn,"ax",%progbits
	.align	2
	.global	InternalAsciiHexCharToUintn
	.type	InternalAsciiHexCharToUintn, %function
InternalAsciiHexCharToUintn:
.LFB19:
	.loc 1 1209 0
	.cfi_startproc
.LVL110:
	sxtb	w0, w0	// Char, Char
.LVL111:
.LBB16:
.LBB17:
	.loc 1 535 0
	sub	w1, w0, #48	// tmp84, Char,
.LBE17:
.LBE16:
	.loc 1 1209 0
	sub	sp, sp, #16	//,,
	.cfi_def_cfa_offset 16
	.loc 1 1210 0
	uxth	w2, w1	// tmp85, tmp84
	.loc 1 1209 0
	str	x30, [sp]	//,
	.cfi_offset 30, -16
	.loc 1 1210 0
	cmp	w2, 9	// tmp85,
	bhi	.L129	//,
	.loc 1 1211 0
	sxtw	x0, w1	// D.3565, tmp84
.LVL112:
	b	.L130	//
.LVL113:
.L129:
	.loc 1 1214 0
	bl	InternalBaseLibAsciiToUpper	//
.LVL114:
	sxtb	w0, w0	// D.3568,
	sub	w0, w0, #55	// D.3567, D.3568,
	sxtw	x0, w0	// D.3565, D.3567
.L130:
	.loc 1 1215 0
	ldr	x30, [sp]	//,
	add	sp, sp, 16	//,,
	.cfi_restore 30
	.cfi_def_cfa_offset 0
	ret
	.cfi_endproc
.LFE19:
	.size	InternalAsciiHexCharToUintn, .-InternalAsciiHexCharToUintn
	.section	.text.AsciiStriCmp,"ax",%progbits
	.align	2
	.global	AsciiStriCmp
	.type	AsciiStriCmp, %function
AsciiStriCmp:
.LFB20:
	.loc 1 1253 0
	.cfi_startproc
.LVL115:
	sub	sp, sp, #48	//,,
	.cfi_def_cfa_offset 48
	stp	x19, x20, [sp]	//,,
	stp	x21, x22, [sp,16]	//,,
	str	x30, [sp,32]	//,
	.cfi_offset 19, -48
	.cfi_offset 20, -40
	.cfi_offset 21, -32
	.cfi_offset 22, -24
	.cfi_offset 30, -16
	.loc 1 1253 0
	mov	x20, x0	// FirstString, FirstString
	mov	x21, x1	// SecondString, SecondString
	.loc 1 1260 0
	bl	DebugAssertEnabled	//
.LVL116:
	uxtb	w0, w0	// D.3583,
	cbz	w0, .L133	// D.3583,
	.loc 1 1260 0 is_stmt 0 discriminator 1
	mov	x0, x20	//, FirstString
	bl	AsciiStrSize	//
.LVL117:
	cbnz	x0, .L133	//,
	ldr	x0, .LC39	//,
	ldr	x2, .LC40	//,
	mov	x1, 1260	//,
	bl	DebugAssert	//
.LVL118:
.L133:
	.loc 1 1261 0 is_stmt 1
	bl	DebugAssertEnabled	//
.LVL119:
	uxtb	w0, w0	// D.3583,
	cbz	w0, .L136	// D.3583,
	.loc 1 1261 0 is_stmt 0 discriminator 1
	mov	x0, x21	//, SecondString
	bl	AsciiStrSize	//
.LVL120:
	cbnz	x0, .L136	//,
	ldr	x0, .LC39	//,
	ldr	x2, .LC41	//,
	mov	x1, 1261	//,
	bl	DebugAssert	//
.LVL121:
.L136:
	.loc 1 1263 0 is_stmt 1
	ldrb	w0, [x20]	//, *FirstString_10(D)
	.loc 1 1265 0
	mov	x19, 0	// ivtmp.167,
	.loc 1 1263 0
	bl	InternalBaseLibAsciiToUpper	//
.LVL122:
	sxtb	w22, w0	// UpperFirstString,
.LVL123:
	.loc 1 1264 0
	ldrb	w0, [x21]	//, *SecondString_16(D)
.LVL124:
	bl	InternalBaseLibAsciiToUpper	//
.LVL125:
	sxtb	w0, w0	// UpperSecondString,
.LVL126:
.L138:
	.loc 1 1265 0 discriminator 1
	ldrsb	w1, [x20,x19]	// MEM[base: FirstString_10(D), index: ivtmp.167_53, offset: 0B], MEM[base: FirstString_10(D), index: ivtmp.167_53, offset: 0B]
	cbnz	w1, .L139	// MEM[base: FirstString_10(D), index: ivtmp.167_53, offset: 0B],
.LVL127:
.L141:
	.loc 1 1272 0
	sub	w0, w22, w0	// D.3586, UpperFirstString, UpperSecondString
.LVL128:
	sxtw	x0, w0	// D.3587, D.3586
	.loc 1 1273 0
	ldp	x19, x20, [sp]	//,,
	ldp	x21, x22, [sp,16]	//,,
.LVL129:
	ldr	x30, [sp,32]	//,
	add	sp, sp, 48	//,,
	.cfi_remember_state
	.cfi_restore 30
	.cfi_restore 22
	.cfi_restore 21
	.cfi_restore 20
	.cfi_restore 19
	.cfi_def_cfa_offset 0
	ret
.LVL130:
.L139:
	.cfi_restore_state
	.loc 1 1265 0 discriminator 2
	cmp	w22, w0	// UpperFirstString, UpperSecondString
	add	x19, x19, 1	// ivtmp.167, ivtmp.167,
.LVL131:
	bne	.L141	//,
.LVL132:
	.loc 1 1268 0
	ldrb	w0, [x20,x19]	//, MEM[base: FirstString_10(D), index: ivtmp.167_52, offset: 0B]
.LVL133:
	bl	InternalBaseLibAsciiToUpper	//
.LVL134:
	sxtb	w22, w0	// UpperFirstString,
.LVL135:
	.loc 1 1269 0
	ldrb	w0, [x21,x19]	//, MEM[base: SecondString_16(D), index: ivtmp.167_52, offset: 0B]
.LVL136:
	bl	InternalBaseLibAsciiToUpper	//
.LVL137:
	sxtb	w0, w0	// UpperSecondString,
.LVL138:
	b	.L138	//
	.cfi_endproc
.LFE20:
	.size	AsciiStriCmp, .-AsciiStriCmp
	.align	3
.LC39:
	.xword	.LC2
	.align	3
.LC40:
	.xword	.LC35
	.align	3
.LC41:
	.xword	.LC37
	.section	.text.AsciiStrnCmp,"ax",%progbits
	.align	2
	.global	AsciiStrnCmp
	.type	AsciiStrnCmp, %function
AsciiStrnCmp:
.LFB21:
	.loc 1 1312 0
	.cfi_startproc
.LVL139:
	sub	sp, sp, #48	//,,
	.cfi_def_cfa_offset 48
	stp	x19, x20, [sp]	//,,
	stp	x21, x22, [sp,16]	//,,
	str	x30, [sp,32]	//,
	.cfi_offset 19, -48
	.cfi_offset 20, -40
	.cfi_offset 21, -32
	.cfi_offset 22, -24
	.cfi_offset 30, -16
	.loc 1 1312 0
	mov	x22, x0	// FirstString, FirstString
	mov	x20, x1	// SecondString, SecondString
	mov	x19, x2	// Length, Length
	.loc 1 1314 0
	mov	x0, 0	// D.3608,
.LVL140:
	.loc 1 1313 0
	cbz	x2, .L144	// Length,
	.loc 1 1320 0
	bl	DebugAssertEnabled	//
.LVL141:
	uxtb	w0, w0	// D.3609,
	cbz	w0, .L146	// D.3609,
	.loc 1 1320 0 is_stmt 0 discriminator 1
	mov	x0, x22	//, FirstString
	bl	AsciiStrSize	//
.LVL142:
	cbnz	x0, .L146	//,
	ldr	x0, .LC42	//,
	ldr	x2, .LC43	//,
	mov	x1, 1320	//,
	bl	DebugAssert	//
.LVL143:
.L146:
	.loc 1 1321 0 is_stmt 1
	bl	DebugAssertEnabled	//
.LVL144:
	uxtb	w0, w0	// D.3609,
	cbz	w0, .L149	// D.3609,
	.loc 1 1321 0 is_stmt 0 discriminator 1
	mov	x0, x20	//, SecondString
	bl	AsciiStrSize	//
.LVL145:
	cbnz	x0, .L149	//,
	ldr	x0, .LC42	//,
	ldr	x2, .LC44	//,
	mov	x1, 1321	//,
	bl	DebugAssert	//
.LVL146:
.L149:
	.loc 1 1323 0 is_stmt 1
	ldr	x0, .LC45	// tmp101,
	ldr	w21, [x0]	//, _gPcd_FixedAtBuild_PcdMaximumAsciiStringLength
	cbz	w21, .L152	// _gPcd_FixedAtBuild_PcdMaximumAsciiStringLength.11,
	.loc 1 1324 0
	bl	DebugAssertEnabled	//
.LVL147:
	uxtb	w0, w0	// D.3609,
	cbz	w0, .L152	// D.3609,
	.loc 1 1324 0 is_stmt 0 discriminator 1
	cmp	x19, x21, uxtw	// Length, _gPcd_FixedAtBuild_PcdMaximumAsciiStringLength.11
	bls	.L152	//,
	ldr	x0, .LC42	//,
	ldr	x2, .LC47	//,
	mov	x1, 1324	//,
	bl	DebugAssert	//
.LVL148:
.L152:
	.loc 1 1312 0 is_stmt 1 discriminator 1
	mov	x3, 0	// ivtmp.181,
.LVL149:
.L154:
	.loc 1 1327 0 discriminator 1
	ldrsb	w1, [x22,x3]	// D.3611, MEM[base: FirstString_13(D), index: ivtmp.181_45, offset: 0B]
	add	x2, x20, x3	// D.3612, SecondString, ivtmp.181
.LVL150:
	cbz	w1, .L155	// D.3611,
	.loc 1 1328 0 discriminator 2
	ldrsb	w0, [x20,x3]	// D.3611, MEM[base: SecondString_19(D), index: ivtmp.181_45, offset: 0B]
	.loc 1 1327 0 discriminator 2
	cbz	w0, .L155	// D.3611,
	.loc 1 1328 0
	cmp	w1, w0	// D.3611, D.3611
	bne	.L155	//,
	add	x3, x3, 1	// ivtmp.181, ivtmp.181,
.LVL151:
	.loc 1 1329 0
	cmp	x3, x19	// ivtmp.181, Length
	bne	.L154	//,
.LVL152:
.L155:
	.loc 1 1335 0
	ldrsb	w0, [x2]	// D.3613, *SecondString_46
	sub	w1, w1, w0	// D.3613, D.3611, D.3613
	sxtw	x0, w1	// D.3608, D.3613
.LVL153:
.L144:
	.loc 1 1336 0
	ldp	x19, x20, [sp]	//,,
	ldp	x21, x22, [sp,16]	//,,
	ldr	x30, [sp,32]	//,
	add	sp, sp, 48	//,,
	.cfi_restore 30
	.cfi_restore 22
	.cfi_restore 21
	.cfi_restore 20
	.cfi_restore 19
	.cfi_def_cfa_offset 0
	ret
	.cfi_endproc
.LFE21:
	.size	AsciiStrnCmp, .-AsciiStrnCmp
	.align	3
.LC42:
	.xword	.LC2
	.align	3
.LC43:
	.xword	.LC35
	.align	3
.LC44:
	.xword	.LC37
	.align	3
.LC45:
	.xword	_gPcd_FixedAtBuild_PcdMaximumAsciiStringLength
	.align	3
.LC47:
	.xword	.LC46
	.section	.text.AsciiStrStr,"ax",%progbits
	.align	2
	.global	AsciiStrStr
	.type	AsciiStrStr, %function
AsciiStrStr:
.LFB22:
	.loc 1 1477 0
	.cfi_startproc
.LVL154:
	sub	sp, sp, #32	//,,
	.cfi_def_cfa_offset 32
	stp	x19, x20, [sp]	//,,
	str	x30, [sp,16]	//,
	.cfi_offset 19, -32
	.cfi_offset 20, -24
	.cfi_offset 30, -16
	.loc 1 1477 0
	mov	x19, x0	// String, String
	mov	x20, x1	// SearchString, SearchString
	.loc 1 1484 0
	bl	DebugAssertEnabled	//
.LVL155:
	uxtb	w0, w0	// D.3638,
	cbz	w0, .L170	// D.3638,
	.loc 1 1484 0 is_stmt 0 discriminator 1
	mov	x0, x19	//, String
	bl	AsciiStrSize	//
.LVL156:
	cbnz	x0, .L170	//,
	ldr	x0, .LC48	//,
	ldr	x2, .LC50	//,
	mov	x1, 1484	//,
	bl	DebugAssert	//
.LVL157:
.L170:
	.loc 1 1485 0 is_stmt 1
	bl	DebugAssertEnabled	//
.LVL158:
	uxtb	w0, w0	// D.3638,
	cbz	w0, .L173	// D.3638,
	.loc 1 1485 0 is_stmt 0 discriminator 1
	mov	x0, x20	//, SearchString
	bl	AsciiStrSize	//
.LVL159:
	cbnz	x0, .L173	//,
	ldr	x0, .LC48	//,
	ldr	x2, .LC52	//,
	mov	x1, 1485	//,
	bl	DebugAssert	//
.LVL160:
.L173:
	.loc 1 1487 0 is_stmt 1
	ldrsb	w1, [x20]	// *SearchString_16(D), *SearchString_16(D)
	.loc 1 1488 0
	mov	x0, x19	// D.3637, String
	.loc 1 1487 0
	cbz	w1, .L175	// *SearchString_16(D),
.L176:
	.loc 1 1491 0 discriminator 1
	ldrsb	w0, [x19]	// MEM[base: String_2, offset: 0B], MEM[base: String_2, offset: 0B]
	cbz	w0, .L183	// MEM[base: String_2, offset: 0B],
	.loc 1 1491 0 is_stmt 0
	mov	x2, 0	// ivtmp.201,
.LVL161:
.L179:
	.loc 1 1495 0 is_stmt 1 discriminator 1
	ldrsb	w0, [x19,x2]	// D.3640, MEM[base: String_2, index: ivtmp.201_29, offset: 0B]
	ldrsb	w1, [x20,x2]	// D.3640, MEM[base: SearchString_16(D), index: ivtmp.201_29, offset: 0B]
	cmp	w0, w1	// D.3640, D.3640
	bne	.L177	//,
	add	x2, x2, 1	// ivtmp.201, ivtmp.201,
.LVL162:
	.loc 1 1496 0
	cbnz	w0, .L179	// D.3640,
	b	.L181	//
.LVL163:
.L177:
	.loc 1 1501 0
	cbz	w1, .L181	// D.3640,
	.loc 1 1505 0
	cbz	w0, .L183	// D.3640,
	.loc 1 1509 0
	add	x19, x19, 1	// String, String,
.LVL164:
	b	.L176	//
.LVL165:
.L181:
	mov	x0, x19	// D.3637, String
	b	.L175	//
.L183:
	.loc 1 1506 0
	mov	x0, 0	// D.3637,
.L175:
	.loc 1 1513 0
	ldp	x19, x20, [sp]	//,,
.LVL166:
	ldr	x30, [sp,16]	//,
	add	sp, sp, 32	//,,
	.cfi_restore 30
	.cfi_restore 20
	.cfi_restore 19
	.cfi_def_cfa_offset 0
	ret
	.cfi_endproc
.LFE22:
	.size	AsciiStrStr, .-AsciiStrStr
	.align	3
.LC48:
	.xword	.LC2
	.align	3
.LC50:
	.xword	.LC49
	.align	3
.LC52:
	.xword	.LC51
	.section	.text.AsciiStrDecimalToUintn,"ax",%progbits
	.align	2
	.global	AsciiStrDecimalToUintn
	.type	AsciiStrDecimalToUintn, %function
AsciiStrDecimalToUintn:
.LFB23:
	.loc 1 1550 0
	.cfi_startproc
.LVL167:
	sub	sp, sp, #32	//,,
	.cfi_def_cfa_offset 32
	.loc 1 1553 0
	add	x2, sp, 24	//,,
	mov	x1, 0	//,
	.loc 1 1550 0
	str	x30, [sp]	//,
	.cfi_offset 30, -32
	.loc 1 1553 0
	bl	AsciiStrDecimalToUintnS	//
.LVL168:
	.loc 1 1555 0
	ldr	x0, [sp,24]	//, Result
	ldr	x30, [sp]	//,
	add	sp, sp, 32	//,,
	.cfi_restore 30
	.cfi_def_cfa_offset 0
	ret
	.cfi_endproc
.LFE23:
	.size	AsciiStrDecimalToUintn, .-AsciiStrDecimalToUintn
	.section	.text.AsciiStrDecimalToUint64,"ax",%progbits
	.align	2
	.global	AsciiStrDecimalToUint64
	.type	AsciiStrDecimalToUint64, %function
AsciiStrDecimalToUint64:
.LFB24:
	.loc 1 1593 0
	.cfi_startproc
.LVL169:
	sub	sp, sp, #32	//,,
	.cfi_def_cfa_offset 32
	.loc 1 1596 0
	add	x2, sp, 24	//,,
	mov	x1, 0	//,
	.loc 1 1593 0
	str	x30, [sp]	//,
	.cfi_offset 30, -32
	.loc 1 1596 0
	bl	AsciiStrDecimalToUint64S	//
.LVL170:
	.loc 1 1598 0
	ldr	x0, [sp,24]	//, Result
	ldr	x30, [sp]	//,
	add	sp, sp, 32	//,,
	.cfi_restore 30
	.cfi_def_cfa_offset 0
	ret
	.cfi_endproc
.LFE24:
	.size	AsciiStrDecimalToUint64, .-AsciiStrDecimalToUint64
	.section	.text.AsciiStrHexToUintn,"ax",%progbits
	.align	2
	.global	AsciiStrHexToUintn
	.type	AsciiStrHexToUintn, %function
AsciiStrHexToUintn:
.LFB25:
	.loc 1 1639 0
	.cfi_startproc
.LVL171:
	sub	sp, sp, #32	//,,
	.cfi_def_cfa_offset 32
	.loc 1 1642 0
	add	x2, sp, 24	//,,
	mov	x1, 0	//,
	.loc 1 1639 0
	str	x30, [sp]	//,
	.cfi_offset 30, -32
	.loc 1 1642 0
	bl	AsciiStrHexToUintnS	//
.LVL172:
	.loc 1 1644 0
	ldr	x0, [sp,24]	//, Result
	ldr	x30, [sp]	//,
	add	sp, sp, 32	//,,
	.cfi_restore 30
	.cfi_def_cfa_offset 0
	ret
	.cfi_endproc
.LFE25:
	.size	AsciiStrHexToUintn, .-AsciiStrHexToUintn
	.section	.text.AsciiStrHexToUint64,"ax",%progbits
	.align	2
	.global	AsciiStrHexToUint64
	.type	AsciiStrHexToUint64, %function
AsciiStrHexToUint64:
.LFB26:
	.loc 1 1686 0
	.cfi_startproc
.LVL173:
	sub	sp, sp, #32	//,,
	.cfi_def_cfa_offset 32
	.loc 1 1689 0
	add	x2, sp, 24	//,,
	mov	x1, 0	//,
	.loc 1 1686 0
	str	x30, [sp]	//,
	.cfi_offset 30, -32
	.loc 1 1689 0
	bl	AsciiStrHexToUint64S	//
.LVL174:
	.loc 1 1691 0
	ldr	x0, [sp,24]	//, Result
	ldr	x30, [sp]	//,
	add	sp, sp, 32	//,,
	.cfi_restore 30
	.cfi_def_cfa_offset 0
	ret
	.cfi_endproc
.LFE26:
	.size	AsciiStrHexToUint64, .-AsciiStrHexToUint64
	.section	.text.DecimalToBcd8,"ax",%progbits
	.align	2
	.global	DecimalToBcd8
	.type	DecimalToBcd8, %function
DecimalToBcd8:
.LFB27:
	.loc 1 1784 0
	.cfi_startproc
.LVL175:
	sub	sp, sp, #16	//,,
	.cfi_def_cfa_offset 16
	stp	x19, x30, [sp]	//,,
	.cfi_offset 19, -16
	.cfi_offset 30, -8
	.loc 1 1784 0
	uxtb	w19, w0	// Value, Value
	.loc 1 1785 0
	bl	DebugAssertEnabled	//
.LVL176:
	uxtb	w0, w0	// D.3657,
	cbz	w0, .L190	// D.3657,
	.loc 1 1785 0 is_stmt 0 discriminator 1
	cmp	w19, 99	// Value,
	bls	.L190	//,
	ldr	x0, .LC53	//,
	ldr	x2, .LC55	//,
	mov	x1, 1785	//,
	bl	DebugAssert	//
.LVL177:
.L190:
	.loc 1 1786 0 is_stmt 1
	mov	w1, 10	// tmp90,
	udiv	w0, w19, w1	// tmp89, Value, tmp90
	msub	w19, w0, w1, w19	// tmp100, tmp89, tmp90, Value
.LVL178:
	orr	w0, w19, w0, lsl 4	// tmp103, tmp100, tmp89,
	.loc 1 1787 0
	ldp	x19, x30, [sp]	//,,
	add	sp, sp, 16	//,,
	.cfi_restore 30
	.cfi_restore 19
	.cfi_def_cfa_offset 0
	ret
	.cfi_endproc
.LFE27:
	.size	DecimalToBcd8, .-DecimalToBcd8
	.align	3
.LC53:
	.xword	.LC2
	.align	3
.LC55:
	.xword	.LC54
	.section	.text.BcdToDecimal8,"ax",%progbits
	.align	2
	.global	BcdToDecimal8
	.type	BcdToDecimal8, %function
BcdToDecimal8:
.LFB28:
	.loc 1 1808 0
	.cfi_startproc
.LVL179:
	sub	sp, sp, #32	//,,
	.cfi_def_cfa_offset 32
	stp	x19, x20, [sp]	//,,
	str	x30, [sp,16]	//,
	.cfi_offset 19, -32
	.cfi_offset 20, -24
	.cfi_offset 30, -16
	.loc 1 1808 0
	uxtb	w19, w0	// Value, Value
	.loc 1 1809 0
	bl	DebugAssertEnabled	//
.LVL180:
	uxtb	w0, w0	// D.3664,
	cbz	w0, .L195	// D.3664,
	.loc 1 1809 0 is_stmt 0 discriminator 1
	cmp	w19, 159	// Value,
	bls	.L195	//,
	ldr	x0, .LC56	//,
	ldr	x2, .LC58	//,
	mov	x1, 1809	//,
	bl	DebugAssert	//
.LVL181:
.L195:
	.loc 1 1810 0 is_stmt 1
	bl	DebugAssertEnabled	//
.LVL182:
	uxtb	w0, w0	// D.3664,
	and	w20, w19, 15	// tmp100, Value,
	cbz	w0, .L196	// D.3664,
	.loc 1 1810 0 is_stmt 0 discriminator 1
	cmp	w20, 9	// tmp100,
	ble	.L196	//,
	ldr	x0, .LC56	//,
	ldr	x2, .LC60	//,
	mov	x1, 1810	//,
	bl	DebugAssert	//
.LVL183:
.L196:
	.loc 1 1811 0 is_stmt 1
	lsr	w19, w19, 4	// tmp92, Value,
.LVL184:
	mov	w0, 10	// tmp95,
	madd	w0, w19, w0, w20	// tmp99, tmp92, tmp95, tmp100
	.loc 1 1812 0
	ldr	x30, [sp,16]	//,
	ldp	x19, x20, [sp]	//,,
	add	sp, sp, 32	//,,
	.cfi_restore 30
	.cfi_restore 20
	.cfi_restore 19
	.cfi_def_cfa_offset 0
	ret
	.cfi_endproc
.LFE28:
	.size	BcdToDecimal8, .-BcdToDecimal8
	.align	3
.LC56:
	.xword	.LC2
	.align	3
.LC58:
	.xword	.LC57
	.align	3
.LC60:
	.xword	.LC59
	.section	.rodata.str1.1,"aMS",%progbits,1
.LC2:
	.string	"/root/next-loader/src/edk2/UDK2018/MyWorkSpace/MdePkg/Library/BaseLib/String.c"
.LC4:
	.string	"String != ((void *) 0)"
.LC6:
	.string	"((UINTN) String & 0x00000001) == 0"
.LC9:
	.string	"Length < _gPcd_FixedAtBuild_PcdMaximumUnicodeStringLength"
.LC12:
	.string	"StrSize (FirstString) != 0"
.LC14:
	.string	"StrSize (SecondString) != 0"
.LC20:
	.string	"Length <= _gPcd_FixedAtBuild_PcdMaximumUnicodeStringLength"
.LC23:
	.string	"StrSize (String) != 0"
.LC25:
	.string	"StrSize (SearchString) != 0"
.LC32:
	.string	"Length < _gPcd_FixedAtBuild_PcdMaximumAsciiStringLength"
.LC35:
	.string	"AsciiStrSize (FirstString)"
.LC37:
	.string	"AsciiStrSize (SecondString)"
.LC46:
	.string	"Length <= _gPcd_FixedAtBuild_PcdMaximumAsciiStringLength"
.LC49:
	.string	"AsciiStrSize (String) != 0"
.LC51:
	.string	"AsciiStrSize (SearchString) != 0"
.LC54:
	.string	"Value < 100"
.LC57:
	.string	"Value < 0xa0"
.LC59:
	.string	"(Value & 0xf) < 0xa"
	.text
.Letext0:
	.file 2 "/root/next-loader/src/edk2/UDK2018/MyWorkSpace/MdePkg/Include/AArch64/ProcessorBind.h"
	.file 3 "/root/next-loader/src/edk2/UDK2018/MyWorkSpace/MdePkg/Include/Base.h"
	.file 4 "/root/next-loader/src/edk2/UDK2018/MyWorkSpace/Build/MdeModule/RELEASE_GCC49/AARCH64/MdePkg/Library/BaseLib/BaseLib/DEBUG/AutoGen.h"
	.file 5 "/root/next-loader/src/edk2/UDK2018/MyWorkSpace/MdePkg/Include/Library/BaseLib.h"
	.file 6 "/root/next-loader/src/edk2/UDK2018/MyWorkSpace/MdePkg/Include/Library/DebugLib.h"
	.section	.note.GNU-stack,"",%progbits
